

Microchip MPLAB XC8 Assembler V2.31 build 20201012212115 
                                                                                               Wed Aug 11 14:11:00 2021

Microchip MPLAB XC8 C Compiler v2.31 (Free license) build 20201012212115 Og1 
     1                           	processor	16F887
     2                           	pagewidth 120
     3                           	opt	flic
     4                           	psect	cinit,global,class=CODE,merge=1,delta=2
     5                           	psect	bssBANK0,global,class=BANK0,space=1,delta=1,noexec
     6                           	psect	bssBANK1,global,class=BANK1,space=1,delta=1,noexec
     7                           	psect	cstackBANK1,global,class=BANK1,space=1,delta=1,noexec
     8                           	psect	cstackCOMMON,global,class=COMMON,space=1,delta=1,noexec
     9                           	psect	cstackBANK0,global,class=BANK0,space=1,delta=1,noexec
    10                           	psect	maintext,global,class=CODE,split=1,delta=2
    11                           	psect	text1,local,class=CODE,merge=1,delta=2
    12                           	psect	text2,local,class=CODE,merge=1,delta=2
    13                           	psect	text3,local,class=CODE,merge=1,delta=2,group=1
    14                           	psect	text4,local,class=CODE,merge=1,delta=2,group=1
    15                           	psect	text5,local,class=CODE,merge=1,delta=2,group=1
    16                           	psect	text6,local,class=CODE,merge=1,delta=2,group=1
    17                           	psect	text7,local,class=CODE,merge=1,delta=2,group=1
    18                           	psect	text8,local,class=CODE,merge=1,delta=2,group=1
    19                           	psect	text9,local,class=CODE,merge=1,delta=2,group=1
    20                           	psect	text10,local,class=CODE,merge=1,delta=2
    21                           	psect	text11,local,class=CODE,merge=1,delta=2
    22                           	psect	text12,local,class=CODE,merge=1,delta=2
    23                           	psect	text13,local,class=CODE,merge=1,delta=2
    24                           	psect	text14,local,class=CODE,merge=1,delta=2
    25                           	psect	config,global,abs,ovrld,class=CONFIG,space=4,delta=2,noexec
    26                           	dabs	1,0x7E,2
    27  0000                     
    28                           ; Version 2.20
    29                           ; Generated 12/02/2020 GMT
    30                           ; 
    31                           ; Copyright © 2020, Microchip Technology Inc. and its subsidiaries ("Microchip")
    32                           ; All rights reserved.
    33                           ; 
    34                           ; This software is developed by Microchip Technology Inc. and its subsidiaries ("Microch
      +                          ip").
    35                           ; 
    36                           ; Redistribution and use in source and binary forms, with or without modification, are
    37                           ; permitted provided that the following conditions are met:
    38                           ; 
    39                           ;     1. Redistributions of source code must retain the above copyright notice, this lis
      +                          t of
    40                           ;        conditions and the following disclaimer.
    41                           ; 
    42                           ;     2. Redistributions in binary form must reproduce the above copyright notice, this 
      +                          list
    43                           ;        of conditions and the following disclaimer in the documentation and/or other
    44                           ;        materials provided with the distribution.
    45                           ; 
    46                           ;     3. Microchip's name may not be used to endorse or promote products derived from th
      +                          is
    47                           ;        software without specific prior written permission.
    48                           ; 
    49                           ; THIS SOFTWARE IS PROVIDED BY MICROCHIP "AS IS" AND ANY EXPRESS OR IMPLIED WARRANTIES,
    50                           ; INCLUDING, BUT NOT LIMITED TO, THE IMPLIED WARRANTIES OF MERCHANTABILITY AND FITNESS F
      +                          OR
    51                           ; PURPOSE ARE DISCLAIMED.  IN NO EVENT SHALL MICROCHIP BE LIABLE FOR ANY DIRECT, INDIREC
      +                          T,
    52                           ; INCIDENTAL, SPECIAL, EXEMPLARY, OR CONSEQUENTIAL DAMAGES (INCLUDING BUT NOT LIMITED TO
    53                           ; PROCUREMENT OF SUBSTITUTE GOODS OR SERVICES; LOSS OF USE, DATA OR PROFITS; OR BUSINESS
    54                           ; INTERRUPTION) HOWSOEVER CAUSED AND ON ANY THEORY OF LIABILITY, WHETHER IN CONTRACT, ST
      +                          RICT
    55                           ; LIABILITY, OR TORT (INCLUDING NEGLIGENCE OR OTHERWISE) ARISING IN ANY WAY OUT OF THE U
      +                          SE OF
    56                           ; THIS SOFTWARE, EVEN IF ADVISED OF THE POSSIBILITY OF SUCH DAMAGE.
    57                           ; 
    58                           ; 
    59                           ; Code-generator required, PIC16F887 Definitions
    60                           ; 
    61                           ; SFR Addresses
    62  0000                     	;# 
    63  0001                     	;# 
    64  0002                     	;# 
    65  0003                     	;# 
    66  0004                     	;# 
    67  0005                     	;# 
    68  0006                     	;# 
    69  0007                     	;# 
    70  0008                     	;# 
    71  0009                     	;# 
    72  000A                     	;# 
    73  000B                     	;# 
    74  000C                     	;# 
    75  000D                     	;# 
    76  000E                     	;# 
    77  000E                     	;# 
    78  000F                     	;# 
    79  0010                     	;# 
    80  0011                     	;# 
    81  0012                     	;# 
    82  0013                     	;# 
    83  0014                     	;# 
    84  0015                     	;# 
    85  0015                     	;# 
    86  0016                     	;# 
    87  0017                     	;# 
    88  0018                     	;# 
    89  0019                     	;# 
    90  001A                     	;# 
    91  001B                     	;# 
    92  001B                     	;# 
    93  001C                     	;# 
    94  001D                     	;# 
    95  001E                     	;# 
    96  001F                     	;# 
    97  0081                     	;# 
    98  0085                     	;# 
    99  0086                     	;# 
   100  0087                     	;# 
   101  0088                     	;# 
   102  0089                     	;# 
   103  008C                     	;# 
   104  008D                     	;# 
   105  008E                     	;# 
   106  008F                     	;# 
   107  0090                     	;# 
   108  0091                     	;# 
   109  0092                     	;# 
   110  0093                     	;# 
   111  0093                     	;# 
   112  0093                     	;# 
   113  0094                     	;# 
   114  0095                     	;# 
   115  0096                     	;# 
   116  0097                     	;# 
   117  0098                     	;# 
   118  0099                     	;# 
   119  009A                     	;# 
   120  009B                     	;# 
   121  009C                     	;# 
   122  009D                     	;# 
   123  009E                     	;# 
   124  009F                     	;# 
   125  0105                     	;# 
   126  0107                     	;# 
   127  0108                     	;# 
   128  0109                     	;# 
   129  010C                     	;# 
   130  010C                     	;# 
   131  010D                     	;# 
   132  010E                     	;# 
   133  010F                     	;# 
   134  0185                     	;# 
   135  0187                     	;# 
   136  0188                     	;# 
   137  0189                     	;# 
   138  018C                     	;# 
   139  018D                     	;# 
   140  0000                     	;# 
   141  0001                     	;# 
   142  0002                     	;# 
   143  0003                     	;# 
   144  0004                     	;# 
   145  0005                     	;# 
   146  0006                     	;# 
   147  0007                     	;# 
   148  0008                     	;# 
   149  0009                     	;# 
   150  000A                     	;# 
   151  000B                     	;# 
   152  000C                     	;# 
   153  000D                     	;# 
   154  000E                     	;# 
   155  000E                     	;# 
   156  000F                     	;# 
   157  0010                     	;# 
   158  0011                     	;# 
   159  0012                     	;# 
   160  0013                     	;# 
   161  0014                     	;# 
   162  0015                     	;# 
   163  0015                     	;# 
   164  0016                     	;# 
   165  0017                     	;# 
   166  0018                     	;# 
   167  0019                     	;# 
   168  001A                     	;# 
   169  001B                     	;# 
   170  001B                     	;# 
   171  001C                     	;# 
   172  001D                     	;# 
   173  001E                     	;# 
   174  001F                     	;# 
   175  0081                     	;# 
   176  0085                     	;# 
   177  0086                     	;# 
   178  0087                     	;# 
   179  0088                     	;# 
   180  0089                     	;# 
   181  008C                     	;# 
   182  008D                     	;# 
   183  008E                     	;# 
   184  008F                     	;# 
   185  0090                     	;# 
   186  0091                     	;# 
   187  0092                     	;# 
   188  0093                     	;# 
   189  0093                     	;# 
   190  0093                     	;# 
   191  0094                     	;# 
   192  0095                     	;# 
   193  0096                     	;# 
   194  0097                     	;# 
   195  0098                     	;# 
   196  0099                     	;# 
   197  009A                     	;# 
   198  009B                     	;# 
   199  009C                     	;# 
   200  009D                     	;# 
   201  009E                     	;# 
   202  009F                     	;# 
   203  0105                     	;# 
   204  0107                     	;# 
   205  0108                     	;# 
   206  0109                     	;# 
   207  010C                     	;# 
   208  010C                     	;# 
   209  010D                     	;# 
   210  010E                     	;# 
   211  010F                     	;# 
   212  0185                     	;# 
   213  0187                     	;# 
   214  0188                     	;# 
   215  0189                     	;# 
   216  018C                     	;# 
   217  018D                     	;# 
   218  0000                     	;# 
   219  0001                     	;# 
   220  0002                     	;# 
   221  0003                     	;# 
   222  0004                     	;# 
   223  0005                     	;# 
   224  0006                     	;# 
   225  0007                     	;# 
   226  0008                     	;# 
   227  0009                     	;# 
   228  000A                     	;# 
   229  000B                     	;# 
   230  000C                     	;# 
   231  000D                     	;# 
   232  000E                     	;# 
   233  000E                     	;# 
   234  000F                     	;# 
   235  0010                     	;# 
   236  0011                     	;# 
   237  0012                     	;# 
   238  0013                     	;# 
   239  0014                     	;# 
   240  0015                     	;# 
   241  0015                     	;# 
   242  0016                     	;# 
   243  0017                     	;# 
   244  0018                     	;# 
   245  0019                     	;# 
   246  001A                     	;# 
   247  001B                     	;# 
   248  001B                     	;# 
   249  001C                     	;# 
   250  001D                     	;# 
   251  001E                     	;# 
   252  001F                     	;# 
   253  0081                     	;# 
   254  0085                     	;# 
   255  0086                     	;# 
   256  0087                     	;# 
   257  0088                     	;# 
   258  0089                     	;# 
   259  008C                     	;# 
   260  008D                     	;# 
   261  008E                     	;# 
   262  008F                     	;# 
   263  0090                     	;# 
   264  0091                     	;# 
   265  0092                     	;# 
   266  0093                     	;# 
   267  0093                     	;# 
   268  0093                     	;# 
   269  0094                     	;# 
   270  0095                     	;# 
   271  0096                     	;# 
   272  0097                     	;# 
   273  0098                     	;# 
   274  0099                     	;# 
   275  009A                     	;# 
   276  009B                     	;# 
   277  009C                     	;# 
   278  009D                     	;# 
   279  009E                     	;# 
   280  009F                     	;# 
   281  0105                     	;# 
   282  0107                     	;# 
   283  0108                     	;# 
   284  0109                     	;# 
   285  010C                     	;# 
   286  010C                     	;# 
   287  010D                     	;# 
   288  010E                     	;# 
   289  010F                     	;# 
   290  0185                     	;# 
   291  0187                     	;# 
   292  0188                     	;# 
   293  0189                     	;# 
   294  018C                     	;# 
   295  018D                     	;# 
   296  0000                     	;# 
   297  0001                     	;# 
   298  0002                     	;# 
   299  0003                     	;# 
   300  0004                     	;# 
   301  0005                     	;# 
   302  0006                     	;# 
   303  0007                     	;# 
   304  0008                     	;# 
   305  0009                     	;# 
   306  000A                     	;# 
   307  000B                     	;# 
   308  000C                     	;# 
   309  000D                     	;# 
   310  000E                     	;# 
   311  000E                     	;# 
   312  000F                     	;# 
   313  0010                     	;# 
   314  0011                     	;# 
   315  0012                     	;# 
   316  0013                     	;# 
   317  0014                     	;# 
   318  0015                     	;# 
   319  0015                     	;# 
   320  0016                     	;# 
   321  0017                     	;# 
   322  0018                     	;# 
   323  0019                     	;# 
   324  001A                     	;# 
   325  001B                     	;# 
   326  001B                     	;# 
   327  001C                     	;# 
   328  001D                     	;# 
   329  001E                     	;# 
   330  001F                     	;# 
   331  0081                     	;# 
   332  0085                     	;# 
   333  0086                     	;# 
   334  0087                     	;# 
   335  0088                     	;# 
   336  0089                     	;# 
   337  008C                     	;# 
   338  008D                     	;# 
   339  008E                     	;# 
   340  008F                     	;# 
   341  0090                     	;# 
   342  0091                     	;# 
   343  0092                     	;# 
   344  0093                     	;# 
   345  0093                     	;# 
   346  0093                     	;# 
   347  0094                     	;# 
   348  0095                     	;# 
   349  0096                     	;# 
   350  0097                     	;# 
   351  0098                     	;# 
   352  0099                     	;# 
   353  009A                     	;# 
   354  009B                     	;# 
   355  009C                     	;# 
   356  009D                     	;# 
   357  009E                     	;# 
   358  009F                     	;# 
   359  0105                     	;# 
   360  0107                     	;# 
   361  0108                     	;# 
   362  0109                     	;# 
   363  010C                     	;# 
   364  010C                     	;# 
   365  010D                     	;# 
   366  010E                     	;# 
   367  010F                     	;# 
   368  0185                     	;# 
   369  0187                     	;# 
   370  0188                     	;# 
   371  0189                     	;# 
   372  018C                     	;# 
   373  018D                     	;# 
   374  0013                     _SSPBUF	set	19
   375  0014                     _SSPCON	set	20
   376  000B                     _INTCONbits	set	11
   377  0009                     _PORTE	set	9
   378  0005                     _PORTA	set	5
   379  0008                     _PORTD	set	8
   380  0006                     _PORTB	set	6
   381  0039                     _RC1	set	57
   382  0038                     _RC0	set	56
   383  0047                     _RD7	set	71
   384  0046                     _RD6	set	70
   385  0045                     _RD5	set	69
   386  0044                     _RD4	set	68
   387  0043                     _RD3	set	67
   388  0042                     _RD2	set	66
   389  0041                     _RD1	set	65
   390  0040                     _RD0	set	64
   391  0063                     _SSPIF	set	99
   392  005E                     _PEIE	set	94
   393  005F                     _GIE	set	95
   394  0091                     _SSPCON2bits	set	145
   395  0087                     _TRISCbits	set	135
   396  0094                     _SSPSTAT	set	148
   397  0093                     _SSPADD	set	147
   398  0091                     _SSPCON2	set	145
   399  0089                     _TRISE	set	137
   400  0088                     _TRISD	set	136
   401  0086                     _TRISB	set	134
   402  0085                     _TRISA	set	133
   403  008F                     _OSCCONbits	set	143
   404  0463                     _SSPIE	set	1123
   405  043C                     _TRISC4	set	1084
   406  043B                     _TRISC3	set	1083
   407  0188                     _ANSEL	set	392
   408  0189                     _ANSELH	set	393
   409                           
   410                           	psect	cinit
   411  07F1                     start_initialization:	
   412                           ; #config settings
   413                           
   414  07F1                     __initialization:
   415                           
   416                           ; Clear objects allocated to BANK0
   417  07F1  1283               	bcf	3,5	;RP0=0, select bank0
   418  07F2  1303               	bcf	3,6	;RP1=0, select bank0
   419  07F3  01EE               	clrf	__pbssBANK0& (0+127)
   420  07F4  01EF               	clrf	(__pbssBANK0+1)& (0+127)
   421                           
   422                           ; Clear objects allocated to BANK1
   423  07F5  1683               	bsf	3,5	;RP0=1, select bank1
   424  07F6  1303               	bcf	3,6	;RP1=0, select bank1
   425  07F7  01AA               	clrf	__pbssBANK1& (0+127)
   426  07F8  01AB               	clrf	(__pbssBANK1+1)& (0+127)
   427  07F9  01AC               	clrf	(__pbssBANK1+2)& (0+127)
   428  07FA  01AD               	clrf	(__pbssBANK1+3)& (0+127)
   429  07FB  01AE               	clrf	(__pbssBANK1+4)& (0+127)
   430  07FC                     end_of_initialization:	
   431                           ;End of C runtime variable initialization code
   432                           
   433  07FC                     __end_of__initialization:
   434  07FC  0183               	clrf	3
   435  07FD  120A  158A  2EA2   	ljmp	_main	;jump to C main() function
   436                           
   437                           	psect	bssBANK0
   438  006E                     __pbssBANK0:
   439  006E                     _sensorval:
   440  006E                     	ds	1
   441  006F                     _senls:
   442  006F                     	ds	1
   443                           
   444                           	psect	bssBANK1
   445  00AA                     __pbssBANK1:
   446  00AA                     _senms:
   447  00AA                     	ds	2
   448  00AC                     _t:
   449  00AC                     	ds	1
   450  00AD                     _sencs:
   451  00AD                     	ds	1
   452  00AE                     _a:
   453  00AE                     	ds	1
   454                           
   455                           	psect	cstackBANK1
   456  00A0                     __pcstackBANK1:
   457  00A0                     ??___fltol:
   458                           
   459                           ; 1 bytes @ 0x0
   460  00A0                     	ds	5
   461  00A5                     ??_main:
   462                           
   463                           ; 1 bytes @ 0x5
   464  00A5                     	ds	5
   465                           
   466                           	psect	cstackCOMMON
   467  0070                     __pcstackCOMMON:
   468  0070                     ?_setup:
   469  0070                     ?_I2C_Master_Start:	
   470                           ; 1 bytes @ 0x0
   471                           
   472  0070                     ??_I2C_Master_Start:	
   473                           ; 1 bytes @ 0x0
   474                           
   475  0070                     ?_I2C_Master_Write:	
   476                           ; 1 bytes @ 0x0
   477                           
   478  0070                     ?_I2C_Master_Stop:	
   479                           ; 1 bytes @ 0x0
   480                           
   481  0070                     ??_I2C_Master_Stop:	
   482                           ; 1 bytes @ 0x0
   483                           
   484  0070                     ?_main:	
   485                           ; 1 bytes @ 0x0
   486                           
   487  0070                     ?_I2C_Master_Wait:	
   488                           ; 1 bytes @ 0x0
   489                           
   490  0070                     ??_I2C_Master_Wait:	
   491                           ; 1 bytes @ 0x0
   492                           
   493  0070                     ?_I2C_Master_Read:	
   494                           ; 1 bytes @ 0x0
   495                           
   496  0070                     ?__Umul8_16:	
   497                           ; 2 bytes @ 0x0
   498                           
   499  0070                     ?___lldiv:	
   500                           ; 2 bytes @ 0x0
   501                           
   502  0070                     ?___xxtofl:	
   503                           ; 4 bytes @ 0x0
   504                           
   505  0070                     __Umul8_16@multiplicand:	
   506                           ; 4 bytes @ 0x0
   507                           
   508  0070                     I2C_Master_Write@d:	
   509                           ; 1 bytes @ 0x0
   510                           
   511  0070                     I2C_Master_Read@a:	
   512                           ; 2 bytes @ 0x0
   513                           
   514  0070                     ___lldiv@divisor:	
   515                           ; 2 bytes @ 0x0
   516                           
   517  0070                     ___xxtofl@val:	
   518                           ; 4 bytes @ 0x0
   519                           
   520                           
   521                           ; 4 bytes @ 0x0
   522  0070                     	ds	2
   523  0072                     ??_I2C_Master_Write:
   524  0072                     ??_I2C_Master_Read:	
   525                           ; 1 bytes @ 0x2
   526                           
   527  0072                     ??__Umul8_16:	
   528                           ; 1 bytes @ 0x2
   529                           
   530                           
   531                           ; 1 bytes @ 0x2
   532  0072                     	ds	2
   533  0074                     ??___xxtofl:
   534  0074                     I2C_Master_Read@temp:	
   535                           ; 1 bytes @ 0x4
   536                           
   537  0074                     __Umul8_16@product:	
   538                           ; 2 bytes @ 0x4
   539                           
   540  0074                     ___lldiv@dividend:	
   541                           ; 2 bytes @ 0x4
   542                           
   543                           
   544                           ; 4 bytes @ 0x4
   545  0074                     	ds	2
   546  0076                     __Umul8_16@word_mpld:
   547                           
   548                           ; 2 bytes @ 0x6
   549  0076                     	ds	2
   550  0078                     ??___lldiv:
   551  0078                     __Umul8_16@multiplier:	
   552                           ; 1 bytes @ 0x8
   553                           
   554  0078                     ___xxtofl@sign:	
   555                           ; 1 bytes @ 0x8
   556                           
   557                           
   558                           ; 1 bytes @ 0x8
   559  0078                     	ds	1
   560  0079                     ___xxtofl@exp:
   561  0079                     ___lldiv@quotient:	
   562                           ; 1 bytes @ 0x9
   563                           
   564                           
   565                           ; 4 bytes @ 0x9
   566  0079                     	ds	1
   567  007A                     ___xxtofl@arg:
   568                           
   569                           ; 4 bytes @ 0xA
   570  007A                     	ds	3
   571  007D                     ___lldiv@counter:
   572                           
   573                           ; 1 bytes @ 0xD
   574  007D                     	ds	1
   575  007E                     ??_setup:
   576                           
   577                           	psect	cstackBANK0
   578  0020                     __pcstackBANK0:	
   579                           ; 1 bytes @ 0xE
   580                           
   581  0020                     ?_I2C_Master_Init:
   582  0020                     ?___flmul:	
   583                           ; 1 bytes @ 0x0
   584                           
   585  0020                     I2C_Master_Init@c:	
   586                           ; 4 bytes @ 0x0
   587                           
   588  0020                     ___flmul@b:	
   589                           ; 4 bytes @ 0x0
   590                           
   591                           
   592                           ; 4 bytes @ 0x0
   593  0020                     	ds	4
   594  0024                     ??_I2C_Master_Init:
   595  0024                     ___flmul@a:	
   596                           ; 1 bytes @ 0x4
   597                           
   598                           
   599                           ; 4 bytes @ 0x4
   600  0024                     	ds	4
   601  0028                     ??___flmul:
   602                           
   603                           ; 1 bytes @ 0x8
   604  0028                     	ds	5
   605  002D                     ___flmul@sign:
   606                           
   607                           ; 1 bytes @ 0xD
   608  002D                     	ds	1
   609  002E                     ___flmul@grs:
   610                           
   611                           ; 4 bytes @ 0xE
   612  002E                     	ds	4
   613  0032                     ___flmul@aexp:
   614                           
   615                           ; 1 bytes @ 0x12
   616  0032                     	ds	1
   617  0033                     ___flmul@bexp:
   618                           
   619                           ; 1 bytes @ 0x13
   620  0033                     	ds	1
   621  0034                     ___flmul@prod:
   622                           
   623                           ; 4 bytes @ 0x14
   624  0034                     	ds	4
   625  0038                     ___flmul@temp:
   626                           
   627                           ; 2 bytes @ 0x18
   628  0038                     	ds	2
   629  003A                     ?___fldiv:
   630  003A                     ___fldiv@a:	
   631                           ; 4 bytes @ 0x1A
   632                           
   633                           
   634                           ; 4 bytes @ 0x1A
   635  003A                     	ds	4
   636  003E                     ___fldiv@b:
   637                           
   638                           ; 4 bytes @ 0x1E
   639  003E                     	ds	4
   640  0042                     ??___fldiv:
   641                           
   642                           ; 1 bytes @ 0x22
   643  0042                     	ds	5
   644  0047                     ___fldiv@rem:
   645                           
   646                           ; 4 bytes @ 0x27
   647  0047                     	ds	4
   648  004B                     ___fldiv@sign:
   649                           
   650                           ; 1 bytes @ 0x2B
   651  004B                     	ds	1
   652  004C                     ___fldiv@new_exp:
   653                           
   654                           ; 2 bytes @ 0x2C
   655  004C                     	ds	2
   656  004E                     ___fldiv@grs:
   657                           
   658                           ; 4 bytes @ 0x2E
   659  004E                     	ds	4
   660  0052                     ___fldiv@bexp:
   661                           
   662                           ; 1 bytes @ 0x32
   663  0052                     	ds	1
   664  0053                     ___fldiv@aexp:
   665                           
   666                           ; 1 bytes @ 0x33
   667  0053                     	ds	1
   668  0054                     ?___fladd:
   669  0054                     ___fladd@b:	
   670                           ; 4 bytes @ 0x34
   671                           
   672                           
   673                           ; 4 bytes @ 0x34
   674  0054                     	ds	4
   675  0058                     ___fladd@a:
   676                           
   677                           ; 4 bytes @ 0x38
   678  0058                     	ds	4
   679  005C                     ??___fladd:
   680                           
   681                           ; 1 bytes @ 0x3C
   682  005C                     	ds	8
   683  0064                     ___fladd@signs:
   684                           
   685                           ; 1 bytes @ 0x44
   686  0064                     	ds	1
   687  0065                     ___fladd@aexp:
   688                           
   689                           ; 1 bytes @ 0x45
   690  0065                     	ds	1
   691  0066                     ___fladd@bexp:
   692                           
   693                           ; 1 bytes @ 0x46
   694  0066                     	ds	1
   695  0067                     ___fladd@grs:
   696                           
   697                           ; 1 bytes @ 0x47
   698  0067                     	ds	1
   699  0068                     ?___fltol:
   700  0068                     ___fltol@f1:	
   701                           ; 4 bytes @ 0x48
   702                           
   703                           
   704                           ; 4 bytes @ 0x48
   705  0068                     	ds	4
   706  006C                     ___fltol@sign1:
   707                           
   708                           ; 1 bytes @ 0x4C
   709  006C                     	ds	1
   710  006D                     ___fltol@exp1:
   711                           
   712                           ; 1 bytes @ 0x4D
   713  006D                     	ds	1
   714                           
   715                           	psect	maintext
   716  0EA2                     __pmaintext:	
   717 ;;
   718 ;;Main: autosize = 0, tempsize = 5, incstack = 0, save=0
   719 ;;
   720 ;; *************** function _main *****************
   721 ;; Defined at:
   722 ;;		line 55 in file "lab4master.c"
   723 ;; Parameters:    Size  Location     Type
   724 ;;		None
   725 ;; Auto vars:     Size  Location     Type
   726 ;;		None
   727 ;; Return value:  Size  Location     Type
   728 ;;                  1    wreg      void 
   729 ;; Registers used:
   730 ;;		wreg, status,2, status,0, btemp+1, pclath, cstack
   731 ;; Tracked objects:
   732 ;;		On entry : B00/0
   733 ;;		On exit  : 0/0
   734 ;;		Unchanged: 0/0
   735 ;; Data sizes:     COMMON   BANK0   BANK1   BANK3   BANK2
   736 ;;      Params:         0       0       0       0       0
   737 ;;      Locals:         0       0       0       0       0
   738 ;;      Temps:          0       0       5       0       0
   739 ;;      Totals:         0       0       5       0       0
   740 ;;Total ram usage:        5 bytes
   741 ;; Hardware stack levels required when called:    3
   742 ;; This function calls:
   743 ;;		_I2C_Master_Read
   744 ;;		_I2C_Master_Start
   745 ;;		_I2C_Master_Stop
   746 ;;		_I2C_Master_Write
   747 ;;		___fladd
   748 ;;		___fldiv
   749 ;;		___flmul
   750 ;;		___fltol
   751 ;;		___xxtofl
   752 ;;		_setup
   753 ;; This function is called by:
   754 ;;		Startup code after reset
   755 ;; This function uses a non-reentrant model
   756 ;;
   757                           
   758                           
   759                           ;psect for function _main
   760  0EA2                     _main:
   761  0EA2                     l2247:	
   762                           ;incstack = 0
   763                           ; Regs used in _main: [wreg+status,2+status,0+btemp+1+pclath+cstack]
   764                           
   765                           
   766                           ;lab4master.c: 56:     setup();
   767  0EA2  120A  158A  245B  120A  158A  	fcall	_setup
   768  0EA7                     l55:	
   769                           ;lab4master.c: 57:     while(1){
   770                           
   771                           
   772                           ;lab4master.c: 58:         I2C_Master_Start();
   773  0EA7  120A  158A  2432  120A  158A  	fcall	_I2C_Master_Start
   774                           
   775                           ;lab4master.c: 59:         I2C_Master_Write(0x50);
   776  0EAC  3050               	movlw	80
   777  0EAD  00F0               	movwf	I2C_Master_Write@d
   778  0EAE  3000               	movlw	0
   779  0EAF  00F1               	movwf	I2C_Master_Write@d+1
   780  0EB0  120A  158A  2444  120A  158A  	fcall	_I2C_Master_Write
   781                           
   782                           ;lab4master.c: 60:         I2C_Master_Write(PORTB);
   783  0EB5  1283               	bcf	3,5	;RP0=0, select bank0
   784  0EB6  1303               	bcf	3,6	;RP1=0, select bank0
   785  0EB7  0806               	movf	6,w	;volatile
   786  0EB8  1683               	bsf	3,5	;RP0=1, select bank1
   787  0EB9  1303               	bcf	3,6	;RP1=0, select bank1
   788  0EBA  00A5               	movwf	??_main^(0+128)
   789  0EBB  01A6               	clrf	(??_main^(0+128)+1)
   790  0EBC  0825               	movf	??_main^(0+128),w
   791  0EBD  00F0               	movwf	I2C_Master_Write@d
   792  0EBE  0826               	movf	(??_main+1)^(0+128),w
   793  0EBF  00F1               	movwf	I2C_Master_Write@d+1
   794  0EC0  120A  158A  2444  120A  158A  	fcall	_I2C_Master_Write
   795                           
   796                           ;lab4master.c: 61:         I2C_Master_Stop();
   797  0EC5  120A  158A  243B  120A  158A  	fcall	_I2C_Master_Stop
   798  0ECA                     l2249:
   799                           
   800                           ;lab4master.c: 62:         _delay((unsigned long)((200)*(8000000/4000.0)));
   801  0ECA  3003               	movlw	3
   802  0ECB  1683               	bsf	3,5	;RP0=1, select bank1
   803  0ECC  1303               	bcf	3,6	;RP1=0, select bank1
   804  0ECD  00A7               	movwf	(??_main^(0+128)+2)
   805  0ECE  3008               	movlw	8
   806  0ECF  00A6               	movwf	(??_main^(0+128)+1)
   807  0ED0  3076               	movlw	118
   808  0ED1  00A5               	movwf	??_main^(0+128)
   809  0ED2                     u3127:
   810  0ED2  0BA5               	decfsz	??_main^(0+128),f
   811  0ED3  2ED2               	goto	u3127
   812  0ED4  0BA6               	decfsz	(??_main^(0+128)+1),f
   813  0ED5  2ED2               	goto	u3127
   814  0ED6  0BA7               	decfsz	(??_main^(0+128)+2),f
   815  0ED7  2ED2               	goto	u3127
   816  0ED8  0000               	nop
   817  0ED9                     l2251:
   818                           
   819                           ;lab4master.c: 64:         I2C_Master_Start();
   820  0ED9  120A  158A  2432  120A  158A  	fcall	_I2C_Master_Start
   821  0EDE                     l2253:
   822                           
   823                           ;lab4master.c: 65:         I2C_Master_Write(0x51);
   824  0EDE  3051               	movlw	81
   825  0EDF  00F0               	movwf	I2C_Master_Write@d
   826  0EE0  3000               	movlw	0
   827  0EE1  00F1               	movwf	I2C_Master_Write@d+1
   828  0EE2  120A  158A  2444  120A  158A  	fcall	_I2C_Master_Write
   829  0EE7                     l2255:
   830                           
   831                           ;lab4master.c: 66:         PORTD = I2C_Master_Read(0);
   832  0EE7  3000               	movlw	0
   833  0EE8  00F0               	movwf	I2C_Master_Read@a
   834  0EE9  00F1               	movwf	I2C_Master_Read@a+1
   835  0EEA  120A  158A  2480  120A  158A  	fcall	_I2C_Master_Read
   836  0EEF  0870               	movf	?_I2C_Master_Read,w
   837  0EF0  1283               	bcf	3,5	;RP0=0, select bank0
   838  0EF1  1303               	bcf	3,6	;RP1=0, select bank0
   839  0EF2  0088               	movwf	8	;volatile
   840  0EF3                     l2257:
   841                           
   842                           ;lab4master.c: 67:         I2C_Master_Stop();
   843  0EF3  120A  158A  243B  120A  158A  	fcall	_I2C_Master_Stop
   844  0EF8                     l2259:
   845                           
   846                           ;lab4master.c: 68:         _delay((unsigned long)((200)*(8000000/4000.0)));
   847  0EF8  3003               	movlw	3
   848  0EF9  1683               	bsf	3,5	;RP0=1, select bank1
   849  0EFA  1303               	bcf	3,6	;RP1=0, select bank1
   850  0EFB  00A7               	movwf	(??_main^(0+128)+2)
   851  0EFC  3008               	movlw	8
   852  0EFD  00A6               	movwf	(??_main^(0+128)+1)
   853  0EFE  3076               	movlw	118
   854  0EFF  00A5               	movwf	??_main^(0+128)
   855  0F00                     u3137:
   856  0F00  0BA5               	decfsz	??_main^(0+128),f
   857  0F01  2F00               	goto	u3137
   858  0F02  0BA6               	decfsz	(??_main^(0+128)+1),f
   859  0F03  2F00               	goto	u3137
   860  0F04  0BA7               	decfsz	(??_main^(0+128)+2),f
   861  0F05  2F00               	goto	u3137
   862  0F06  0000               	nop
   863                           
   864                           ;lab4master.c: 71:         I2C_Master_Start();
   865  0F07  120A  158A  2432  120A  158A  	fcall	_I2C_Master_Start
   866                           
   867                           ;lab4master.c: 72:         I2C_Master_Write(0x80);
   868  0F0C  3080               	movlw	128
   869  0F0D  00F0               	movwf	I2C_Master_Write@d
   870  0F0E  3000               	movlw	0
   871  0F0F  00F1               	movwf	I2C_Master_Write@d+1
   872  0F10  120A  158A  2444  120A  158A  	fcall	_I2C_Master_Write
   873                           
   874                           ;lab4master.c: 73:         I2C_Master_Write(0xF3);
   875  0F15  30F3               	movlw	243
   876  0F16  00F0               	movwf	I2C_Master_Write@d
   877  0F17  3000               	movlw	0
   878  0F18  00F1               	movwf	I2C_Master_Write@d+1
   879  0F19  120A  158A  2444  120A  158A  	fcall	_I2C_Master_Write
   880                           
   881                           ;lab4master.c: 74:         I2C_Master_Stop();
   882  0F1E  120A  158A  243B  120A  158A  	fcall	_I2C_Master_Stop
   883  0F23                     l2261:
   884                           
   885                           ;lab4master.c: 75:         _delay((unsigned long)((200)*(8000000/4000.0)));
   886  0F23  3003               	movlw	3
   887  0F24  1683               	bsf	3,5	;RP0=1, select bank1
   888  0F25  1303               	bcf	3,6	;RP1=0, select bank1
   889  0F26  00A7               	movwf	(??_main^(0+128)+2)
   890  0F27  3008               	movlw	8
   891  0F28  00A6               	movwf	(??_main^(0+128)+1)
   892  0F29  3076               	movlw	118
   893  0F2A  00A5               	movwf	??_main^(0+128)
   894  0F2B                     u3147:
   895  0F2B  0BA5               	decfsz	??_main^(0+128),f
   896  0F2C  2F2B               	goto	u3147
   897  0F2D  0BA6               	decfsz	(??_main^(0+128)+1),f
   898  0F2E  2F2B               	goto	u3147
   899  0F2F  0BA7               	decfsz	(??_main^(0+128)+2),f
   900  0F30  2F2B               	goto	u3147
   901  0F31  0000               	nop
   902  0F32                     l2263:
   903                           
   904                           ;lab4master.c: 76:         I2C_Master_Start();
   905  0F32  120A  158A  2432  120A  158A  	fcall	_I2C_Master_Start
   906  0F37                     l2265:
   907                           
   908                           ;lab4master.c: 77:         I2C_Master_Write(0x81);
   909  0F37  3081               	movlw	129
   910  0F38  00F0               	movwf	I2C_Master_Write@d
   911  0F39  3000               	movlw	0
   912  0F3A  00F1               	movwf	I2C_Master_Write@d+1
   913  0F3B  120A  158A  2444  120A  158A  	fcall	_I2C_Master_Write
   914  0F40                     l2267:
   915                           
   916                           ;lab4master.c: 78:         senms = I2C_Master_Read(0);
   917  0F40  3000               	movlw	0
   918  0F41  00F0               	movwf	I2C_Master_Read@a
   919  0F42  00F1               	movwf	I2C_Master_Read@a+1
   920  0F43  120A  158A  2480  120A  158A  	fcall	_I2C_Master_Read
   921  0F48  0871               	movf	?_I2C_Master_Read+1,w
   922  0F49  1683               	bsf	3,5	;RP0=1, select bank1
   923  0F4A  1303               	bcf	3,6	;RP1=0, select bank1
   924  0F4B  00AB               	movwf	(_senms+1)^(0+128)
   925  0F4C  0870               	movf	?_I2C_Master_Read,w
   926  0F4D  00AA               	movwf	_senms^(0+128)
   927  0F4E                     l2269:
   928                           
   929                           ;lab4master.c: 79:         senls = I2C_Master_Read(0);
   930  0F4E  3000               	movlw	0
   931  0F4F  00F0               	movwf	I2C_Master_Read@a
   932  0F50  00F1               	movwf	I2C_Master_Read@a+1
   933  0F51  120A  158A  2480  120A  158A  	fcall	_I2C_Master_Read
   934  0F56  0870               	movf	?_I2C_Master_Read,w
   935  0F57  1683               	bsf	3,5	;RP0=1, select bank1
   936  0F58  1303               	bcf	3,6	;RP1=0, select bank1
   937  0F59  00A5               	movwf	??_main^(0+128)
   938  0F5A  0825               	movf	??_main^(0+128),w
   939  0F5B  1283               	bcf	3,5	;RP0=0, select bank0
   940  0F5C  1303               	bcf	3,6	;RP1=0, select bank0
   941  0F5D  00EF               	movwf	_senls
   942  0F5E                     l2271:
   943                           
   944                           ;lab4master.c: 80:         I2C_Master_Stop();
   945  0F5E  120A  158A  243B  120A  158A  	fcall	_I2C_Master_Stop
   946                           
   947                           ;lab4master.c: 81:         _delay((unsigned long)((200)*(8000000/4000.0)));
   948  0F63  3003               	movlw	3
   949  0F64  1683               	bsf	3,5	;RP0=1, select bank1
   950  0F65  1303               	bcf	3,6	;RP1=0, select bank1
   951  0F66  00A7               	movwf	(??_main^(0+128)+2)
   952  0F67  3008               	movlw	8
   953  0F68  00A6               	movwf	(??_main^(0+128)+1)
   954  0F69  3076               	movlw	118
   955  0F6A  00A5               	movwf	??_main^(0+128)
   956  0F6B                     u3157:
   957  0F6B  0BA5               	decfsz	??_main^(0+128),f
   958  0F6C  2F6B               	goto	u3157
   959  0F6D  0BA6               	decfsz	(??_main^(0+128)+1),f
   960  0F6E  2F6B               	goto	u3157
   961  0F6F  0BA7               	decfsz	(??_main^(0+128)+2),f
   962  0F70  2F6B               	goto	u3157
   963  0F71  0000               	nop
   964  0F72                     l2273:
   965                           
   966                           ;lab4master.c: 84:         sensorval = senms<<8;
   967  0F72  1283               	bcf	3,5	;RP0=0, select bank0
   968  0F73  1303               	bcf	3,6	;RP1=0, select bank0
   969  0F74  01EE               	clrf	_sensorval
   970  0F75                     l2275:
   971                           
   972                           ;lab4master.c: 85:         sensorval += senms;
   973  0F75  1683               	bsf	3,5	;RP0=1, select bank1
   974  0F76  1303               	bcf	3,6	;RP1=0, select bank1
   975  0F77  082A               	movf	_senms^(0+128),w
   976  0F78  00A5               	movwf	??_main^(0+128)
   977  0F79  0825               	movf	??_main^(0+128),w
   978  0F7A  1283               	bcf	3,5	;RP0=0, select bank0
   979  0F7B  1303               	bcf	3,6	;RP1=0, select bank0
   980  0F7C  07EE               	addwf	_sensorval,f
   981  0F7D                     l2277:
   982                           
   983                           ;lab4master.c: 86:         sensorval &= ~0b11;
   984  0F7D  30FC               	movlw	252
   985  0F7E  1683               	bsf	3,5	;RP0=1, select bank1
   986  0F7F  1303               	bcf	3,6	;RP1=0, select bank1
   987  0F80  00A5               	movwf	??_main^(0+128)
   988  0F81  0825               	movf	??_main^(0+128),w
   989  0F82  1283               	bcf	3,5	;RP0=0, select bank0
   990  0F83  1303               	bcf	3,6	;RP1=0, select bank0
   991  0F84  05EE               	andwf	_sensorval,f
   992  0F85                     l2279:
   993                           
   994                           ;lab4master.c: 87:         t = -46.85 +(175.72*sensorval/65536);
   995  0F85  086E               	movf	_sensorval,w
   996  0F86  1683               	bsf	3,5	;RP0=1, select bank1
   997  0F87  1303               	bcf	3,6	;RP1=0, select bank1
   998  0F88  00A5               	movwf	??_main^(0+128)
   999  0F89  01A6               	clrf	(??_main^(0+128)+1)
  1000  0F8A  01A7               	clrf	(??_main^(0+128)+2)
  1001  0F8B  01A8               	clrf	(??_main^(0+128)+3)
  1002  0F8C  0828               	movf	(??_main+3)^(0+128),w
  1003  0F8D  00F3               	movwf	___xxtofl@val+3
  1004  0F8E  0827               	movf	(??_main+2)^(0+128),w
  1005  0F8F  00F2               	movwf	___xxtofl@val+2
  1006  0F90  0826               	movf	(??_main+1)^(0+128),w
  1007  0F91  00F1               	movwf	___xxtofl@val+1
  1008  0F92  0825               	movf	??_main^(0+128),w
  1009  0F93  00F0               	movwf	___xxtofl@val
  1010  0F94  3001               	movlw	1
  1011  0F95  120A  158A  25E8  120A  158A  	fcall	___xxtofl
  1012  0F9A  0873               	movf	?___xxtofl+3,w
  1013  0F9B  1283               	bcf	3,5	;RP0=0, select bank0
  1014  0F9C  1303               	bcf	3,6	;RP1=0, select bank0
  1015  0F9D  00A7               	movwf	___flmul@a+3
  1016  0F9E  0872               	movf	?___xxtofl+2,w
  1017  0F9F  00A6               	movwf	___flmul@a+2
  1018  0FA0  0871               	movf	?___xxtofl+1,w
  1019  0FA1  00A5               	movwf	___flmul@a+1
  1020  0FA2  0870               	movf	?___xxtofl,w
  1021  0FA3  00A4               	movwf	___flmul@a
  1022  0FA4  3043               	movlw	67
  1023  0FA5  00A3               	movwf	___flmul@b+3
  1024  0FA6  302F               	movlw	47
  1025  0FA7  00A2               	movwf	___flmul@b+2
  1026  0FA8  30B8               	movlw	184
  1027  0FA9  00A1               	movwf	___flmul@b+1
  1028  0FAA  3052               	movlw	82
  1029  0FAB  00A0               	movwf	___flmul@b
  1030  0FAC  120A  118A  2490  120A  158A  	fcall	___flmul
  1031  0FB1  1283               	bcf	3,5	;RP0=0, select bank0
  1032  0FB2  1303               	bcf	3,6	;RP1=0, select bank0
  1033  0FB3  0823               	movf	?___flmul+3,w
  1034  0FB4  00C1               	movwf	___fldiv@b+3
  1035  0FB5  0822               	movf	?___flmul+2,w
  1036  0FB6  00C0               	movwf	___fldiv@b+2
  1037  0FB7  0821               	movf	?___flmul+1,w
  1038  0FB8  00BF               	movwf	___fldiv@b+1
  1039  0FB9  0820               	movf	?___flmul,w
  1040  0FBA  00BE               	movwf	___fldiv@b
  1041  0FBB  3047               	movlw	71
  1042  0FBC  00BD               	movwf	___fldiv@a+3
  1043  0FBD  3080               	movlw	128
  1044  0FBE  00BC               	movwf	___fldiv@a+2
  1045  0FBF  3000               	movlw	0
  1046  0FC0  00BB               	movwf	___fldiv@a+1
  1047  0FC1  3000               	movlw	0
  1048  0FC2  00BA               	movwf	___fldiv@a
  1049  0FC3  120A  118A  202B  120A  158A  	fcall	___fldiv
  1050  0FC8  1283               	bcf	3,5	;RP0=0, select bank0
  1051  0FC9  1303               	bcf	3,6	;RP1=0, select bank0
  1052  0FCA  083D               	movf	?___fldiv+3,w
  1053  0FCB  00DB               	movwf	___fladd@a+3
  1054  0FCC  083C               	movf	?___fldiv+2,w
  1055  0FCD  00DA               	movwf	___fladd@a+2
  1056  0FCE  083B               	movf	?___fldiv+1,w
  1057  0FCF  00D9               	movwf	___fladd@a+1
  1058  0FD0  083A               	movf	?___fldiv,w
  1059  0FD1  00D8               	movwf	___fladd@a
  1060  0FD2  30C2               	movlw	194
  1061  0FD3  00D7               	movwf	___fladd@b+3
  1062  0FD4  303B               	movlw	59
  1063  0FD5  00D6               	movwf	___fladd@b+2
  1064  0FD6  3066               	movlw	102
  1065  0FD7  00D5               	movwf	___fladd@b+1
  1066  0FD8  3066               	movlw	102
  1067  0FD9  00D4               	movwf	___fladd@b
  1068  0FDA  120A  118A  2208  120A  158A  	fcall	___fladd
  1069  0FDF  1283               	bcf	3,5	;RP0=0, select bank0
  1070  0FE0  1303               	bcf	3,6	;RP1=0, select bank0
  1071  0FE1  0857               	movf	?___fladd+3,w
  1072  0FE2  00EB               	movwf	___fltol@f1+3
  1073  0FE3  0856               	movf	?___fladd+2,w
  1074  0FE4  00EA               	movwf	___fltol@f1+2
  1075  0FE5  0855               	movf	?___fladd+1,w
  1076  0FE6  00E9               	movwf	___fltol@f1+1
  1077  0FE7  0854               	movf	?___fladd,w
  1078  0FE8  00E8               	movwf	___fltol@f1
  1079  0FE9  120A  158A  254C  120A  158A  	fcall	___fltol
  1080  0FEE  1283               	bcf	3,5	;RP0=0, select bank0
  1081  0FEF  1303               	bcf	3,6	;RP1=0, select bank0
  1082  0FF0  0868               	movf	?___fltol,w
  1083  0FF1  1683               	bsf	3,5	;RP0=1, select bank1
  1084  0FF2  1303               	bcf	3,6	;RP1=0, select bank1
  1085  0FF3  00A9               	movwf	(??_main+4)^(0+128)
  1086  0FF4  0829               	movf	(??_main+4)^(0+128),w
  1087  0FF5  00AC               	movwf	_t^(0+128)
  1088  0FF6                     l2281:
  1089                           
  1090                           ;lab4master.c: 88:         PORTB = senms;
  1091  0FF6  082A               	movf	_senms^(0+128),w
  1092  0FF7  1283               	bcf	3,5	;RP0=0, select bank0
  1093  0FF8  1303               	bcf	3,6	;RP1=0, select bank0
  1094  0FF9  0086               	movwf	6	;volatile
  1095  0FFA                     l2283:
  1096                           
  1097                           ;lab4master.c: 89:         PORTA = senls;
  1098  0FFA  086F               	movf	_senls,w
  1099  0FFB  0085               	movwf	5	;volatile
  1100  0FFC  2EA7               	goto	l55
  1101  0FFD  120A  118A  2800   	ljmp	start
  1102  1000                     __end_of_main:
  1103                           
  1104                           	psect	text1
  1105  0C5B                     __ptext1:	
  1106 ;; *************** function _setup *****************
  1107 ;; Defined at:
  1108 ;;		line 95 in file "lab4master.c"
  1109 ;; Parameters:    Size  Location     Type
  1110 ;;		None
  1111 ;; Auto vars:     Size  Location     Type
  1112 ;;		None
  1113 ;; Return value:  Size  Location     Type
  1114 ;;                  1    wreg      void 
  1115 ;; Registers used:
  1116 ;;		wreg, status,2, status,0, pclath, cstack
  1117 ;; Tracked objects:
  1118 ;;		On entry : 0/0
  1119 ;;		On exit  : 0/0
  1120 ;;		Unchanged: 0/0
  1121 ;; Data sizes:     COMMON   BANK0   BANK1   BANK3   BANK2
  1122 ;;      Params:         0       0       0       0       0
  1123 ;;      Locals:         0       0       0       0       0
  1124 ;;      Temps:          0       0       0       0       0
  1125 ;;      Totals:         0       0       0       0       0
  1126 ;;Total ram usage:        0 bytes
  1127 ;; Hardware stack levels used:    1
  1128 ;; Hardware stack levels required when called:    2
  1129 ;; This function calls:
  1130 ;;		_I2C_Master_Init
  1131 ;; This function is called by:
  1132 ;;		_main
  1133 ;; This function uses a non-reentrant model
  1134 ;;
  1135                           
  1136                           
  1137                           ;psect for function _setup
  1138  0C5B                     _setup:
  1139  0C5B                     l1633:	
  1140                           ;incstack = 0
  1141                           ; Regs used in _setup: [wreg+status,2+status,0+pclath+cstack]
  1142                           
  1143                           
  1144                           ;lab4master.c: 98:     OSCCONbits.IRCF = 7;
  1145  0C5B  3070               	movlw	112
  1146  0C5C  1683               	bsf	3,5	;RP0=1, select bank1
  1147  0C5D  1303               	bcf	3,6	;RP1=0, select bank1
  1148  0C5E  048F               	iorwf	15,f	;volatile
  1149  0C5F                     l1635:
  1150                           
  1151                           ;lab4master.c: 99:     OSCCONbits.SCS = 1;
  1152  0C5F  140F               	bsf	15,0	;volatile
  1153  0C60                     l1637:
  1154                           
  1155                           ;lab4master.c: 101:     ANSELH = 0;
  1156  0C60  1683               	bsf	3,5	;RP0=1, select bank3
  1157  0C61  1703               	bsf	3,6	;RP1=1, select bank3
  1158  0C62  0189               	clrf	9	;volatile
  1159  0C63                     l1639:
  1160                           
  1161                           ;lab4master.c: 102:     ANSEL = 0;
  1162  0C63  0188               	clrf	8	;volatile
  1163  0C64                     l1641:
  1164                           
  1165                           ;lab4master.c: 103:     TRISA = 0;
  1166  0C64  1683               	bsf	3,5	;RP0=1, select bank1
  1167  0C65  1303               	bcf	3,6	;RP1=0, select bank1
  1168  0C66  0185               	clrf	5	;volatile
  1169  0C67                     l1643:
  1170                           
  1171                           ;lab4master.c: 104:     TRISB = 0;
  1172  0C67  0186               	clrf	6	;volatile
  1173  0C68                     l1645:
  1174                           
  1175                           ;lab4master.c: 105:     TRISD = 0;
  1176  0C68  0188               	clrf	8	;volatile
  1177  0C69                     l1647:
  1178                           
  1179                           ;lab4master.c: 106:     TRISE = 0;
  1180  0C69  0189               	clrf	9	;volatile
  1181  0C6A                     l1649:
  1182                           
  1183                           ;lab4master.c: 107:     PORTA = 0;
  1184  0C6A  1283               	bcf	3,5	;RP0=0, select bank0
  1185  0C6B  1303               	bcf	3,6	;RP1=0, select bank0
  1186  0C6C  0185               	clrf	5	;volatile
  1187  0C6D                     l1651:
  1188                           
  1189                           ;lab4master.c: 108:     PORTB = 0;
  1190  0C6D  0186               	clrf	6	;volatile
  1191  0C6E                     l1653:
  1192                           
  1193                           ;lab4master.c: 109:     PORTD = 0;
  1194  0C6E  0188               	clrf	8	;volatile
  1195  0C6F                     l1655:
  1196                           
  1197                           ;lab4master.c: 110:     PORTE = 0;
  1198  0C6F  0189               	clrf	9	;volatile
  1199  0C70                     l1657:
  1200                           
  1201                           ;lab4master.c: 112:     INTCONbits.GIE = 1;
  1202  0C70  178B               	bsf	11,7	;volatile
  1203  0C71                     l1659:
  1204                           
  1205                           ;lab4master.c: 113:     INTCONbits.PEIE = 1;
  1206  0C71  170B               	bsf	11,6	;volatile
  1207  0C72                     l1661:
  1208                           
  1209                           ;lab4master.c: 114:     I2C_Master_Init(100000);
  1210  0C72  3000               	movlw	0
  1211  0C73  00A3               	movwf	I2C_Master_Init@c+3
  1212  0C74  3001               	movlw	1
  1213  0C75  00A2               	movwf	I2C_Master_Init@c+2
  1214  0C76  3086               	movlw	134
  1215  0C77  00A1               	movwf	I2C_Master_Init@c+1
  1216  0C78  30A0               	movlw	160
  1217  0C79  00A0               	movwf	I2C_Master_Init@c
  1218  0C7A  120A  158A  24AE  120A  158A  	fcall	_I2C_Master_Init
  1219  0C7F                     l61:
  1220  0C7F  0008               	return
  1221  0C80                     __end_of_setup:
  1222                           
  1223                           	psect	text2
  1224  0CAE                     __ptext2:	
  1225 ;; *************** function _I2C_Master_Init *****************
  1226 ;; Defined at:
  1227 ;;		line 16 in file "I2C.c"
  1228 ;; Parameters:    Size  Location     Type
  1229 ;;  c               4    0[BANK0 ] const unsigned long 
  1230 ;; Auto vars:     Size  Location     Type
  1231 ;;		None
  1232 ;; Return value:  Size  Location     Type
  1233 ;;                  1    wreg      void 
  1234 ;; Registers used:
  1235 ;;		wreg, status,2, status,0, pclath, cstack
  1236 ;; Tracked objects:
  1237 ;;		On entry : 0/0
  1238 ;;		On exit  : 0/0
  1239 ;;		Unchanged: 0/0
  1240 ;; Data sizes:     COMMON   BANK0   BANK1   BANK3   BANK2
  1241 ;;      Params:         0       4       0       0       0
  1242 ;;      Locals:         0       0       0       0       0
  1243 ;;      Temps:          0       4       0       0       0
  1244 ;;      Totals:         0       8       0       0       0
  1245 ;;Total ram usage:        8 bytes
  1246 ;; Hardware stack levels used:    1
  1247 ;; Hardware stack levels required when called:    1
  1248 ;; This function calls:
  1249 ;;		___lldiv
  1250 ;; This function is called by:
  1251 ;;		_setup
  1252 ;; This function uses a non-reentrant model
  1253 ;;
  1254                           
  1255                           
  1256                           ;psect for function _I2C_Master_Init
  1257  0CAE                     _I2C_Master_Init:
  1258  0CAE                     l1603:	
  1259                           ;incstack = 0
  1260                           ; Regs used in _I2C_Master_Init: [wreg+status,2+status,0+pclath+cstack]
  1261                           
  1262                           
  1263                           ;I2C.c: 16: void I2C_Master_Init(const unsigned long c);I2C.c: 17: {;I2C.c: 18:     SSPC
      +                          ON = 0b00101000;
  1264  0CAE  3028               	movlw	40
  1265  0CAF  1283               	bcf	3,5	;RP0=0, select bank0
  1266  0CB0  1303               	bcf	3,6	;RP1=0, select bank0
  1267  0CB1  0094               	movwf	20	;volatile
  1268  0CB2                     l1605:
  1269                           
  1270                           ;I2C.c: 19:     SSPCON2 = 0;
  1271  0CB2  1683               	bsf	3,5	;RP0=1, select bank1
  1272  0CB3  1303               	bcf	3,6	;RP1=0, select bank1
  1273  0CB4  0191               	clrf	17	;volatile
  1274  0CB5                     l1607:
  1275                           
  1276                           ;I2C.c: 20:     SSPADD = (8000000/(4*c))-1;
  1277  0CB5  1283               	bcf	3,5	;RP0=0, select bank0
  1278  0CB6  1303               	bcf	3,6	;RP1=0, select bank0
  1279  0CB7  0820               	movf	I2C_Master_Init@c,w
  1280  0CB8  00A4               	movwf	??_I2C_Master_Init
  1281  0CB9  0821               	movf	I2C_Master_Init@c+1,w
  1282  0CBA  00A5               	movwf	??_I2C_Master_Init+1
  1283  0CBB  0822               	movf	I2C_Master_Init@c+2,w
  1284  0CBC  00A6               	movwf	??_I2C_Master_Init+2
  1285  0CBD  0823               	movf	I2C_Master_Init@c+3,w
  1286  0CBE  00A7               	movwf	??_I2C_Master_Init+3
  1287  0CBF  3002               	movlw	2
  1288  0CC0                     u1695:
  1289  0CC0  1003               	clrc
  1290  0CC1  0DA4               	rlf	??_I2C_Master_Init,f
  1291  0CC2  0DA5               	rlf	??_I2C_Master_Init+1,f
  1292  0CC3  0DA6               	rlf	??_I2C_Master_Init+2,f
  1293  0CC4  0DA7               	rlf	??_I2C_Master_Init+3,f
  1294  0CC5                     u1690:
  1295  0CC5  3EFF               	addlw	-1
  1296  0CC6  1D03               	skipz
  1297  0CC7  2CC0               	goto	u1695
  1298  0CC8  0827               	movf	??_I2C_Master_Init+3,w
  1299  0CC9  00F3               	movwf	___lldiv@divisor+3
  1300  0CCA  0826               	movf	??_I2C_Master_Init+2,w
  1301  0CCB  00F2               	movwf	___lldiv@divisor+2
  1302  0CCC  0825               	movf	??_I2C_Master_Init+1,w
  1303  0CCD  00F1               	movwf	___lldiv@divisor+1
  1304  0CCE  0824               	movf	??_I2C_Master_Init,w
  1305  0CCF  00F0               	movwf	___lldiv@divisor
  1306  0CD0  3000               	movlw	0
  1307  0CD1  00F7               	movwf	___lldiv@dividend+3
  1308  0CD2  307A               	movlw	122
  1309  0CD3  00F6               	movwf	___lldiv@dividend+2
  1310  0CD4  3012               	movlw	18
  1311  0CD5  00F5               	movwf	___lldiv@dividend+1
  1312  0CD6  3000               	movlw	0
  1313  0CD7  00F4               	movwf	___lldiv@dividend
  1314  0CD8  120A  158A  24E6  120A  158A  	fcall	___lldiv
  1315  0CDD  0870               	movf	?___lldiv,w
  1316  0CDE  3EFF               	addlw	255
  1317  0CDF  1683               	bsf	3,5	;RP0=1, select bank1
  1318  0CE0  1303               	bcf	3,6	;RP1=0, select bank1
  1319  0CE1  0093               	movwf	19	;volatile
  1320  0CE2                     l1609:
  1321                           
  1322                           ;I2C.c: 21:     SSPSTAT = 0;
  1323  0CE2  0194               	clrf	20	;volatile
  1324  0CE3                     l1611:
  1325                           
  1326                           ;I2C.c: 22:     TRISCbits.TRISC3 = 1;
  1327  0CE3  1587               	bsf	7,3	;volatile
  1328  0CE4                     l1613:
  1329                           
  1330                           ;I2C.c: 23:     TRISCbits.TRISC4 = 1;
  1331  0CE4  1607               	bsf	7,4	;volatile
  1332  0CE5                     l90:
  1333  0CE5  0008               	return
  1334  0CE6                     __end_of_I2C_Master_Init:
  1335                           
  1336                           	psect	text3
  1337  0CE6                     __ptext3:	
  1338 ;; *************** function ___lldiv *****************
  1339 ;; Defined at:
  1340 ;;		line 5 in file "C:\Program Files\Microchip\xc8\v2.31\pic\sources\c90\common\__lldiv.c"
  1341 ;; Parameters:    Size  Location     Type
  1342 ;;  divisor         4    0[COMMON] unsigned long 
  1343 ;;  dividend        4    4[COMMON] unsigned long 
  1344 ;; Auto vars:     Size  Location     Type
  1345 ;;  quotient        4    9[COMMON] unsigned long 
  1346 ;;  counter         1   13[COMMON] unsigned char 
  1347 ;; Return value:  Size  Location     Type
  1348 ;;                  4    0[COMMON] unsigned long 
  1349 ;; Registers used:
  1350 ;;		wreg, status,2, status,0
  1351 ;; Tracked objects:
  1352 ;;		On entry : 0/0
  1353 ;;		On exit  : 0/0
  1354 ;;		Unchanged: 0/0
  1355 ;; Data sizes:     COMMON   BANK0   BANK1   BANK3   BANK2
  1356 ;;      Params:         8       0       0       0       0
  1357 ;;      Locals:         5       0       0       0       0
  1358 ;;      Temps:          1       0       0       0       0
  1359 ;;      Totals:        14       0       0       0       0
  1360 ;;Total ram usage:       14 bytes
  1361 ;; Hardware stack levels used:    1
  1362 ;; This function calls:
  1363 ;;		Nothing
  1364 ;; This function is called by:
  1365 ;;		_I2C_Master_Init
  1366 ;; This function uses a non-reentrant model
  1367 ;;
  1368                           
  1369                           
  1370                           ;psect for function ___lldiv
  1371  0CE6                     ___lldiv:
  1372  0CE6                     l1579:	
  1373                           ;incstack = 0
  1374                           ; Regs used in ___lldiv: [wreg+status,2+status,0]
  1375                           
  1376  0CE6  3000               	movlw	0
  1377  0CE7  00FC               	movwf	___lldiv@quotient+3
  1378  0CE8  3000               	movlw	0
  1379  0CE9  00FB               	movwf	___lldiv@quotient+2
  1380  0CEA  3000               	movlw	0
  1381  0CEB  00FA               	movwf	___lldiv@quotient+1
  1382  0CEC  3000               	movlw	0
  1383  0CED  00F9               	movwf	___lldiv@quotient
  1384  0CEE  0873               	movf	___lldiv@divisor+3,w
  1385  0CEF  0472               	iorwf	___lldiv@divisor+2,w
  1386  0CF0  0471               	iorwf	___lldiv@divisor+1,w
  1387  0CF1  0470               	iorwf	___lldiv@divisor,w
  1388  0CF2  1903               	skipnz
  1389  0CF3  2CF5               	goto	u1621
  1390  0CF4  2CF6               	goto	u1620
  1391  0CF5                     u1621:
  1392  0CF5  2D43               	goto	l1599
  1393  0CF6                     u1620:
  1394  0CF6                     l1581:
  1395  0CF6  01FD               	clrf	___lldiv@counter
  1396  0CF7  0AFD               	incf	___lldiv@counter,f
  1397  0CF8  2D06               	goto	l1585
  1398  0CF9                     l1583:
  1399  0CF9  3001               	movlw	1
  1400  0CFA  00F8               	movwf	??___lldiv
  1401  0CFB                     u1635:
  1402  0CFB  1003               	clrc
  1403  0CFC  0DF0               	rlf	___lldiv@divisor,f
  1404  0CFD  0DF1               	rlf	___lldiv@divisor+1,f
  1405  0CFE  0DF2               	rlf	___lldiv@divisor+2,f
  1406  0CFF  0DF3               	rlf	___lldiv@divisor+3,f
  1407  0D00  0BF8               	decfsz	??___lldiv,f
  1408  0D01  2CFB               	goto	u1635
  1409  0D02  3001               	movlw	1
  1410  0D03  00F8               	movwf	??___lldiv
  1411  0D04  0878               	movf	??___lldiv,w
  1412  0D05  07FD               	addwf	___lldiv@counter,f
  1413  0D06                     l1585:
  1414  0D06  1FF3               	btfss	___lldiv@divisor+3,7
  1415  0D07  2D09               	goto	u1641
  1416  0D08  2D0A               	goto	u1640
  1417  0D09                     u1641:
  1418  0D09  2CF9               	goto	l1583
  1419  0D0A                     u1640:
  1420  0D0A                     l1587:
  1421  0D0A  3001               	movlw	1
  1422  0D0B  00F8               	movwf	??___lldiv
  1423  0D0C                     u1655:
  1424  0D0C  1003               	clrc
  1425  0D0D  0DF9               	rlf	___lldiv@quotient,f
  1426  0D0E  0DFA               	rlf	___lldiv@quotient+1,f
  1427  0D0F  0DFB               	rlf	___lldiv@quotient+2,f
  1428  0D10  0DFC               	rlf	___lldiv@quotient+3,f
  1429  0D11  0BF8               	decfsz	??___lldiv,f
  1430  0D12  2D0C               	goto	u1655
  1431  0D13                     l1589:
  1432  0D13  0873               	movf	___lldiv@divisor+3,w
  1433  0D14  0277               	subwf	___lldiv@dividend+3,w
  1434  0D15  1D03               	skipz
  1435  0D16  2D21               	goto	u1665
  1436  0D17  0872               	movf	___lldiv@divisor+2,w
  1437  0D18  0276               	subwf	___lldiv@dividend+2,w
  1438  0D19  1D03               	skipz
  1439  0D1A  2D21               	goto	u1665
  1440  0D1B  0871               	movf	___lldiv@divisor+1,w
  1441  0D1C  0275               	subwf	___lldiv@dividend+1,w
  1442  0D1D  1D03               	skipz
  1443  0D1E  2D21               	goto	u1665
  1444  0D1F  0870               	movf	___lldiv@divisor,w
  1445  0D20  0274               	subwf	___lldiv@dividend,w
  1446  0D21                     u1665:
  1447  0D21  1C03               	skipc
  1448  0D22  2D24               	goto	u1661
  1449  0D23  2D25               	goto	u1660
  1450  0D24                     u1661:
  1451  0D24  2D34               	goto	l1595
  1452  0D25                     u1660:
  1453  0D25                     l1591:
  1454  0D25  0870               	movf	___lldiv@divisor,w
  1455  0D26  02F4               	subwf	___lldiv@dividend,f
  1456  0D27  0871               	movf	___lldiv@divisor+1,w
  1457  0D28  1C03               	skipc
  1458  0D29  0F71               	incfsz	___lldiv@divisor+1,w
  1459  0D2A  02F5               	subwf	___lldiv@dividend+1,f
  1460  0D2B  0872               	movf	___lldiv@divisor+2,w
  1461  0D2C  1C03               	skipc
  1462  0D2D  0F72               	incfsz	___lldiv@divisor+2,w
  1463  0D2E  02F6               	subwf	___lldiv@dividend+2,f
  1464  0D2F  0873               	movf	___lldiv@divisor+3,w
  1465  0D30  1C03               	skipc
  1466  0D31  0F73               	incfsz	___lldiv@divisor+3,w
  1467  0D32  02F7               	subwf	___lldiv@dividend+3,f
  1468  0D33                     l1593:
  1469  0D33  1479               	bsf	___lldiv@quotient,0
  1470  0D34                     l1595:
  1471  0D34  3001               	movlw	1
  1472  0D35                     u1675:
  1473  0D35  1003               	clrc
  1474  0D36  0CF3               	rrf	___lldiv@divisor+3,f
  1475  0D37  0CF2               	rrf	___lldiv@divisor+2,f
  1476  0D38  0CF1               	rrf	___lldiv@divisor+1,f
  1477  0D39  0CF0               	rrf	___lldiv@divisor,f
  1478  0D3A  3EFF               	addlw	-1
  1479  0D3B  1D03               	skipz
  1480  0D3C  2D35               	goto	u1675
  1481  0D3D                     l1597:
  1482  0D3D  3001               	movlw	1
  1483  0D3E  02FD               	subwf	___lldiv@counter,f
  1484  0D3F  1D03               	btfss	3,2
  1485  0D40  2D42               	goto	u1681
  1486  0D41  2D43               	goto	u1680
  1487  0D42                     u1681:
  1488  0D42  2D0A               	goto	l1587
  1489  0D43                     u1680:
  1490  0D43                     l1599:
  1491  0D43  087C               	movf	___lldiv@quotient+3,w
  1492  0D44  00F3               	movwf	?___lldiv+3
  1493  0D45  087B               	movf	___lldiv@quotient+2,w
  1494  0D46  00F2               	movwf	?___lldiv+2
  1495  0D47  087A               	movf	___lldiv@quotient+1,w
  1496  0D48  00F1               	movwf	?___lldiv+1
  1497  0D49  0879               	movf	___lldiv@quotient,w
  1498  0D4A  00F0               	movwf	?___lldiv
  1499  0D4B                     l311:
  1500  0D4B  0008               	return
  1501  0D4C                     __end_of___lldiv:
  1502                           
  1503                           	psect	text4
  1504  0DE8                     __ptext4:	
  1505 ;; *************** function ___xxtofl *****************
  1506 ;; Defined at:
  1507 ;;		line 10 in file "C:\Program Files\Microchip\xc8\v2.31\pic\sources\c90\common\xxtofl.c"
  1508 ;; Parameters:    Size  Location     Type
  1509 ;;  sign            1    wreg     unsigned char 
  1510 ;;  val             4    0[COMMON] long 
  1511 ;; Auto vars:     Size  Location     Type
  1512 ;;  sign            1    8[COMMON] unsigned char 
  1513 ;;  arg             4   10[COMMON] unsigned long 
  1514 ;;  exp             1    9[COMMON] unsigned char 
  1515 ;; Return value:  Size  Location     Type
  1516 ;;                  4    0[COMMON] unsigned char 
  1517 ;; Registers used:
  1518 ;;		wreg, status,2, status,0
  1519 ;; Tracked objects:
  1520 ;;		On entry : 0/0
  1521 ;;		On exit  : 0/0
  1522 ;;		Unchanged: 0/0
  1523 ;; Data sizes:     COMMON   BANK0   BANK1   BANK3   BANK2
  1524 ;;      Params:         4       0       0       0       0
  1525 ;;      Locals:         6       0       0       0       0
  1526 ;;      Temps:          4       0       0       0       0
  1527 ;;      Totals:        14       0       0       0       0
  1528 ;;Total ram usage:       14 bytes
  1529 ;; Hardware stack levels used:    1
  1530 ;; This function calls:
  1531 ;;		Nothing
  1532 ;; This function is called by:
  1533 ;;		_main
  1534 ;; This function uses a non-reentrant model
  1535 ;;
  1536                           
  1537                           
  1538                           ;psect for function ___xxtofl
  1539  0DE8                     ___xxtofl:
  1540                           
  1541                           ;incstack = 0
  1542                           ; Regs used in ___xxtofl: [wreg+status,2+status,0]
  1543                           ;___xxtofl@sign stored from wreg
  1544  0DE8  00F8               	movwf	___xxtofl@sign
  1545  0DE9                     l2203:
  1546  0DE9  0878               	movf	___xxtofl@sign,w
  1547  0DEA  1903               	btfsc	3,2
  1548  0DEB  2DED               	goto	u2981
  1549  0DEC  2DEE               	goto	u2980
  1550  0DED                     u2981:
  1551  0DED  2E02               	goto	l2209
  1552  0DEE                     u2980:
  1553  0DEE                     l2205:
  1554  0DEE  1FF3               	btfss	___xxtofl@val+3,7
  1555  0DEF  2DF1               	goto	u2991
  1556  0DF0  2DF2               	goto	u2990
  1557  0DF1                     u2991:
  1558  0DF1  2E02               	goto	l2209
  1559  0DF2                     u2990:
  1560  0DF2                     l2207:
  1561  0DF2  0970               	comf	___xxtofl@val,w
  1562  0DF3  00FA               	movwf	___xxtofl@arg
  1563  0DF4  0971               	comf	___xxtofl@val+1,w
  1564  0DF5  00FB               	movwf	___xxtofl@arg+1
  1565  0DF6  0972               	comf	___xxtofl@val+2,w
  1566  0DF7  00FC               	movwf	___xxtofl@arg+2
  1567  0DF8  0973               	comf	___xxtofl@val+3,w
  1568  0DF9  00FD               	movwf	___xxtofl@arg+3
  1569  0DFA  0AFA               	incf	___xxtofl@arg,f
  1570  0DFB  1903               	skipnz
  1571  0DFC  0AFB               	incf	___xxtofl@arg+1,f
  1572  0DFD  1903               	skipnz
  1573  0DFE  0AFC               	incf	___xxtofl@arg+2,f
  1574  0DFF  1903               	skipnz
  1575  0E00  0AFD               	incf	___xxtofl@arg+3,f
  1576  0E01  2E0A               	goto	l708
  1577  0E02                     l2209:
  1578  0E02  0873               	movf	___xxtofl@val+3,w
  1579  0E03  00FD               	movwf	___xxtofl@arg+3
  1580  0E04  0872               	movf	___xxtofl@val+2,w
  1581  0E05  00FC               	movwf	___xxtofl@arg+2
  1582  0E06  0871               	movf	___xxtofl@val+1,w
  1583  0E07  00FB               	movwf	___xxtofl@arg+1
  1584  0E08  0870               	movf	___xxtofl@val,w
  1585  0E09  00FA               	movwf	___xxtofl@arg
  1586  0E0A                     l708:
  1587  0E0A  0873               	movf	___xxtofl@val+3,w
  1588  0E0B  0472               	iorwf	___xxtofl@val+2,w
  1589  0E0C  0471               	iorwf	___xxtofl@val+1,w
  1590  0E0D  0470               	iorwf	___xxtofl@val,w
  1591  0E0E  1D03               	skipz
  1592  0E0F  2E11               	goto	u3001
  1593  0E10  2E12               	goto	u3000
  1594  0E11                     u3001:
  1595  0E11  2E1B               	goto	l2215
  1596  0E12                     u3000:
  1597  0E12                     l2211:
  1598  0E12  3000               	movlw	0
  1599  0E13  00F3               	movwf	?___xxtofl+3
  1600  0E14  3000               	movlw	0
  1601  0E15  00F2               	movwf	?___xxtofl+2
  1602  0E16  3000               	movlw	0
  1603  0E17  00F1               	movwf	?___xxtofl+1
  1604  0E18  3000               	movlw	0
  1605  0E19  00F0               	movwf	?___xxtofl
  1606  0E1A  2EA1               	goto	l710
  1607  0E1B                     l2215:
  1608  0E1B  3096               	movlw	150
  1609  0E1C  00F4               	movwf	??___xxtofl
  1610  0E1D  0874               	movf	??___xxtofl,w
  1611  0E1E  00F9               	movwf	___xxtofl@exp
  1612  0E1F  2E2D               	goto	l2219
  1613  0E20                     l2217:
  1614  0E20  3001               	movlw	1
  1615  0E21  00F4               	movwf	??___xxtofl
  1616  0E22  0874               	movf	??___xxtofl,w
  1617  0E23  07F9               	addwf	___xxtofl@exp,f
  1618  0E24  3001               	movlw	1
  1619  0E25                     u3015:
  1620  0E25  1003               	clrc
  1621  0E26  0CFD               	rrf	___xxtofl@arg+3,f
  1622  0E27  0CFC               	rrf	___xxtofl@arg+2,f
  1623  0E28  0CFB               	rrf	___xxtofl@arg+1,f
  1624  0E29  0CFA               	rrf	___xxtofl@arg,f
  1625  0E2A  3EFF               	addlw	-1
  1626  0E2B  1D03               	skipz
  1627  0E2C  2E25               	goto	u3015
  1628  0E2D                     l2219:
  1629  0E2D  30FE               	movlw	254
  1630  0E2E  057D               	andwf	___xxtofl@arg+3,w
  1631  0E2F  1D03               	btfss	3,2
  1632  0E30  2E32               	goto	u3021
  1633  0E31  2E33               	goto	u3020
  1634  0E32                     u3021:
  1635  0E32  2E20               	goto	l2217
  1636  0E33                     u3020:
  1637  0E33  2E4F               	goto	l714
  1638  0E34                     l2221:
  1639  0E34  3001               	movlw	1
  1640  0E35  00F4               	movwf	??___xxtofl
  1641  0E36  0874               	movf	??___xxtofl,w
  1642  0E37  07F9               	addwf	___xxtofl@exp,f
  1643  0E38                     l2223:
  1644  0E38  3001               	movlw	1
  1645  0E39  07FA               	addwf	___xxtofl@arg,f
  1646  0E3A  3000               	movlw	0
  1647  0E3B  1803               	skipnc
  1648  0E3C  3001               	movlw	1
  1649  0E3D  07FB               	addwf	___xxtofl@arg+1,f
  1650  0E3E  3000               	movlw	0
  1651  0E3F  1803               	skipnc
  1652  0E40  3001               	movlw	1
  1653  0E41  07FC               	addwf	___xxtofl@arg+2,f
  1654  0E42  3000               	movlw	0
  1655  0E43  1803               	skipnc
  1656  0E44  3001               	movlw	1
  1657  0E45  07FD               	addwf	___xxtofl@arg+3,f
  1658  0E46                     l2225:
  1659  0E46  3001               	movlw	1
  1660  0E47                     u3035:
  1661  0E47  1003               	clrc
  1662  0E48  0CFD               	rrf	___xxtofl@arg+3,f
  1663  0E49  0CFC               	rrf	___xxtofl@arg+2,f
  1664  0E4A  0CFB               	rrf	___xxtofl@arg+1,f
  1665  0E4B  0CFA               	rrf	___xxtofl@arg,f
  1666  0E4C  3EFF               	addlw	-1
  1667  0E4D  1D03               	skipz
  1668  0E4E  2E47               	goto	u3035
  1669  0E4F                     l714:
  1670  0E4F  30FF               	movlw	255
  1671  0E50  057D               	andwf	___xxtofl@arg+3,w
  1672  0E51  1D03               	btfss	3,2
  1673  0E52  2E54               	goto	u3041
  1674  0E53  2E55               	goto	u3040
  1675  0E54                     u3041:
  1676  0E54  2E34               	goto	l2221
  1677  0E55                     u3040:
  1678  0E55  2E61               	goto	l2229
  1679  0E56                     l2227:
  1680  0E56  3001               	movlw	1
  1681  0E57  02F9               	subwf	___xxtofl@exp,f
  1682  0E58  3001               	movlw	1
  1683  0E59  00F4               	movwf	??___xxtofl
  1684  0E5A                     u3055:
  1685  0E5A  1003               	clrc
  1686  0E5B  0DFA               	rlf	___xxtofl@arg,f
  1687  0E5C  0DFB               	rlf	___xxtofl@arg+1,f
  1688  0E5D  0DFC               	rlf	___xxtofl@arg+2,f
  1689  0E5E  0DFD               	rlf	___xxtofl@arg+3,f
  1690  0E5F  0BF4               	decfsz	??___xxtofl,f
  1691  0E60  2E5A               	goto	u3055
  1692  0E61                     l2229:
  1693  0E61  1BFC               	btfsc	___xxtofl@arg+2,7
  1694  0E62  2E64               	goto	u3061
  1695  0E63  2E65               	goto	u3060
  1696  0E64                     u3061:
  1697  0E64  2E6B               	goto	l721
  1698  0E65                     u3060:
  1699  0E65                     l2231:
  1700  0E65  3002               	movlw	2
  1701  0E66  0279               	subwf	___xxtofl@exp,w
  1702  0E67  1803               	skipnc
  1703  0E68  2E6A               	goto	u3071
  1704  0E69  2E6B               	goto	u3070
  1705  0E6A                     u3071:
  1706  0E6A  2E56               	goto	l2227
  1707  0E6B                     u3070:
  1708  0E6B                     l721:
  1709  0E6B  1879               	btfsc	___xxtofl@exp,0
  1710  0E6C  2E6E               	goto	u3081
  1711  0E6D  2E6F               	goto	u3080
  1712  0E6E                     u3081:
  1713  0E6E  2E77               	goto	l722
  1714  0E6F                     u3080:
  1715  0E6F                     l2233:
  1716  0E6F  30FF               	movlw	255
  1717  0E70  05FA               	andwf	___xxtofl@arg,f
  1718  0E71  30FF               	movlw	255
  1719  0E72  05FB               	andwf	___xxtofl@arg+1,f
  1720  0E73  307F               	movlw	127
  1721  0E74  05FC               	andwf	___xxtofl@arg+2,f
  1722  0E75  30FF               	movlw	255
  1723  0E76  05FD               	andwf	___xxtofl@arg+3,f
  1724  0E77                     l722:
  1725  0E77  1003               	clrc
  1726  0E78  0CF9               	rrf	___xxtofl@exp,f
  1727  0E79                     l2235:
  1728  0E79  0879               	movf	___xxtofl@exp,w
  1729  0E7A  00F4               	movwf	??___xxtofl
  1730  0E7B  01F5               	clrf	??___xxtofl+1
  1731  0E7C  01F6               	clrf	??___xxtofl+2
  1732  0E7D  01F7               	clrf	??___xxtofl+3
  1733  0E7E  3018               	movlw	24
  1734  0E7F                     u3095:
  1735  0E7F  1003               	clrc
  1736  0E80  0DF4               	rlf	??___xxtofl,f
  1737  0E81  0DF5               	rlf	??___xxtofl+1,f
  1738  0E82  0DF6               	rlf	??___xxtofl+2,f
  1739  0E83  0DF7               	rlf	??___xxtofl+3,f
  1740  0E84                     u3090:
  1741  0E84  3EFF               	addlw	-1
  1742  0E85  1D03               	skipz
  1743  0E86  2E7F               	goto	u3095
  1744  0E87  0874               	movf	??___xxtofl,w
  1745  0E88  04FA               	iorwf	___xxtofl@arg,f
  1746  0E89  0875               	movf	??___xxtofl+1,w
  1747  0E8A  04FB               	iorwf	___xxtofl@arg+1,f
  1748  0E8B  0876               	movf	??___xxtofl+2,w
  1749  0E8C  04FC               	iorwf	___xxtofl@arg+2,f
  1750  0E8D  0877               	movf	??___xxtofl+3,w
  1751  0E8E  04FD               	iorwf	___xxtofl@arg+3,f
  1752  0E8F                     l2237:
  1753  0E8F  0878               	movf	___xxtofl@sign,w
  1754  0E90  1903               	btfsc	3,2
  1755  0E91  2E93               	goto	u3101
  1756  0E92  2E94               	goto	u3100
  1757  0E93                     u3101:
  1758  0E93  2E99               	goto	l2243
  1759  0E94                     u3100:
  1760  0E94                     l2239:
  1761  0E94  1FF3               	btfss	___xxtofl@val+3,7
  1762  0E95  2E97               	goto	u3111
  1763  0E96  2E98               	goto	u3110
  1764  0E97                     u3111:
  1765  0E97  2E99               	goto	l2243
  1766  0E98                     u3110:
  1767  0E98                     l2241:
  1768  0E98  17FD               	bsf	___xxtofl@arg+3,7
  1769  0E99                     l2243:
  1770  0E99  087D               	movf	___xxtofl@arg+3,w
  1771  0E9A  00F3               	movwf	?___xxtofl+3
  1772  0E9B  087C               	movf	___xxtofl@arg+2,w
  1773  0E9C  00F2               	movwf	?___xxtofl+2
  1774  0E9D  087B               	movf	___xxtofl@arg+1,w
  1775  0E9E  00F1               	movwf	?___xxtofl+1
  1776  0E9F  087A               	movf	___xxtofl@arg,w
  1777  0EA0  00F0               	movwf	?___xxtofl
  1778  0EA1                     l710:
  1779  0EA1  0008               	return
  1780  0EA2                     __end_of___xxtofl:
  1781                           
  1782                           	psect	text5
  1783  0D4C                     __ptext5:	
  1784 ;; *************** function ___fltol *****************
  1785 ;; Defined at:
  1786 ;;		line 43 in file "C:\Program Files\Microchip\xc8\v2.31\pic\sources\c90\common\fltol.c"
  1787 ;; Parameters:    Size  Location     Type
  1788 ;;  f1              4   72[BANK0 ] unsigned char 
  1789 ;; Auto vars:     Size  Location     Type
  1790 ;;  exp1            1   77[BANK0 ] unsigned char 
  1791 ;;  sign1           1   76[BANK0 ] unsigned char 
  1792 ;; Return value:  Size  Location     Type
  1793 ;;                  4   72[BANK0 ] long 
  1794 ;; Registers used:
  1795 ;;		wreg, status,2, status,0
  1796 ;; Tracked objects:
  1797 ;;		On entry : 0/0
  1798 ;;		On exit  : 0/0
  1799 ;;		Unchanged: 0/0
  1800 ;; Data sizes:     COMMON   BANK0   BANK1   BANK3   BANK2
  1801 ;;      Params:         0       4       0       0       0
  1802 ;;      Locals:         0       2       0       0       0
  1803 ;;      Temps:          0       0       5       0       0
  1804 ;;      Totals:         0       6       5       0       0
  1805 ;;Total ram usage:       11 bytes
  1806 ;; Hardware stack levels used:    1
  1807 ;; This function calls:
  1808 ;;		Nothing
  1809 ;; This function is called by:
  1810 ;;		_main
  1811 ;; This function uses a non-reentrant model
  1812 ;;
  1813                           
  1814                           
  1815                           ;psect for function ___fltol
  1816  0D4C                     ___fltol:
  1817  0D4C                     l1691:	
  1818                           ;incstack = 0
  1819                           ; Regs used in ___fltol: [wreg+status,2+status,0]
  1820                           
  1821  0D4C  1003               	clrc
  1822  0D4D  1283               	bcf	3,5	;RP0=0, select bank0
  1823  0D4E  1303               	bcf	3,6	;RP1=0, select bank0
  1824  0D4F  0D6A               	rlf	___fltol@f1+2,w
  1825  0D50  0D6B               	rlf	___fltol@f1+3,w
  1826  0D51  1683               	bsf	3,5	;RP0=1, select bank1
  1827  0D52  1303               	bcf	3,6	;RP1=0, select bank1
  1828  0D53  00A0               	movwf	??___fltol^(0+128)
  1829  0D54  0820               	movf	??___fltol^(0+128),w
  1830  0D55  1283               	bcf	3,5	;RP0=0, select bank0
  1831  0D56  1303               	bcf	3,6	;RP1=0, select bank0
  1832  0D57  00ED               	movwf	___fltol@exp1
  1833  0D58  086D               	movf	___fltol@exp1,w
  1834  0D59  1D03               	btfss	3,2
  1835  0D5A  2D5C               	goto	u1761
  1836  0D5B  2D5D               	goto	u1760
  1837  0D5C                     u1761:
  1838  0D5C  2D66               	goto	l1697
  1839  0D5D                     u1760:
  1840  0D5D                     l1693:
  1841  0D5D  3000               	movlw	0
  1842  0D5E  00EB               	movwf	?___fltol+3
  1843  0D5F  3000               	movlw	0
  1844  0D60  00EA               	movwf	?___fltol+2
  1845  0D61  3000               	movlw	0
  1846  0D62  00E9               	movwf	?___fltol+1
  1847  0D63  3000               	movlw	0
  1848  0D64  00E8               	movwf	?___fltol
  1849  0D65  2DE7               	goto	l461
  1850  0D66                     l1697:
  1851  0D66  0868               	movf	___fltol@f1,w
  1852  0D67  1683               	bsf	3,5	;RP0=1, select bank1
  1853  0D68  1303               	bcf	3,6	;RP1=0, select bank1
  1854  0D69  00A0               	movwf	??___fltol^(0+128)
  1855  0D6A  1283               	bcf	3,5	;RP0=0, select bank0
  1856  0D6B  1303               	bcf	3,6	;RP1=0, select bank0
  1857  0D6C  0869               	movf	___fltol@f1+1,w
  1858  0D6D  1683               	bsf	3,5	;RP0=1, select bank1
  1859  0D6E  1303               	bcf	3,6	;RP1=0, select bank1
  1860  0D6F  00A1               	movwf	(??___fltol^(0+128)+1)
  1861  0D70  1283               	bcf	3,5	;RP0=0, select bank0
  1862  0D71  1303               	bcf	3,6	;RP1=0, select bank0
  1863  0D72  086A               	movf	___fltol@f1+2,w
  1864  0D73  1683               	bsf	3,5	;RP0=1, select bank1
  1865  0D74  1303               	bcf	3,6	;RP1=0, select bank1
  1866  0D75  00A2               	movwf	(??___fltol^(0+128)+2)
  1867  0D76  1283               	bcf	3,5	;RP0=0, select bank0
  1868  0D77  1303               	bcf	3,6	;RP1=0, select bank0
  1869  0D78  086B               	movf	___fltol@f1+3,w
  1870  0D79  1683               	bsf	3,5	;RP0=1, select bank1
  1871  0D7A  1303               	bcf	3,6	;RP1=0, select bank1
  1872  0D7B  00A3               	movwf	(??___fltol^(0+128)+3)
  1873  0D7C  301F               	movlw	31
  1874  0D7D                     u1775:
  1875  0D7D  1003               	clrc
  1876  0D7E  0CA3               	rrf	(??___fltol^(0+128)+3),f
  1877  0D7F  0CA2               	rrf	(??___fltol^(0+128)+2),f
  1878  0D80  0CA1               	rrf	(??___fltol^(0+128)+1),f
  1879  0D81  0CA0               	rrf	??___fltol^(0+128),f
  1880  0D82                     u1770:
  1881  0D82  3EFF               	addlw	-1
  1882  0D83  1D03               	skipz
  1883  0D84  2D7D               	goto	u1775
  1884  0D85  0820               	movf	??___fltol^(0+128),w
  1885  0D86  00A4               	movwf	(??___fltol+4)^(0+128)
  1886  0D87  0824               	movf	(??___fltol+4)^(0+128),w
  1887  0D88  1283               	bcf	3,5	;RP0=0, select bank0
  1888  0D89  1303               	bcf	3,6	;RP1=0, select bank0
  1889  0D8A  00EC               	movwf	___fltol@sign1
  1890  0D8B                     l1699:
  1891  0D8B  17EA               	bsf	___fltol@f1+2,7
  1892  0D8C                     l1701:
  1893  0D8C  30FF               	movlw	255
  1894  0D8D  05E8               	andwf	___fltol@f1,f
  1895  0D8E  30FF               	movlw	255
  1896  0D8F  05E9               	andwf	___fltol@f1+1,f
  1897  0D90  30FF               	movlw	255
  1898  0D91  05EA               	andwf	___fltol@f1+2,f
  1899  0D92  3000               	movlw	0
  1900  0D93  05EB               	andwf	___fltol@f1+3,f
  1901  0D94                     l1703:
  1902  0D94  3096               	movlw	150
  1903  0D95  02ED               	subwf	___fltol@exp1,f
  1904  0D96                     l1705:
  1905  0D96  1FED               	btfss	___fltol@exp1,7
  1906  0D97  2D99               	goto	u1781
  1907  0D98  2D9A               	goto	u1780
  1908  0D99                     u1781:
  1909  0D99  2DB8               	goto	l1715
  1910  0D9A                     u1780:
  1911  0D9A                     l1707:
  1912  0D9A  086D               	movf	___fltol@exp1,w
  1913  0D9B  3A80               	xorlw	128
  1914  0D9C  3E97               	addlw	151
  1915  0D9D  1803               	skipnc
  1916  0D9E  2DA0               	goto	u1791
  1917  0D9F  2DA1               	goto	u1790
  1918  0DA0                     u1791:
  1919  0DA0  2DA2               	goto	l1713
  1920  0DA1                     u1790:
  1921  0DA1  2D5D               	goto	l1693
  1922  0DA2                     l1713:
  1923  0DA2  3001               	movlw	1
  1924  0DA3                     u1805:
  1925  0DA3  1003               	clrc
  1926  0DA4  0CEB               	rrf	___fltol@f1+3,f
  1927  0DA5  0CEA               	rrf	___fltol@f1+2,f
  1928  0DA6  0CE9               	rrf	___fltol@f1+1,f
  1929  0DA7  0CE8               	rrf	___fltol@f1,f
  1930  0DA8  3EFF               	addlw	-1
  1931  0DA9  1D03               	skipz
  1932  0DAA  2DA3               	goto	u1805
  1933  0DAB  3001               	movlw	1
  1934  0DAC  1683               	bsf	3,5	;RP0=1, select bank1
  1935  0DAD  1303               	bcf	3,6	;RP1=0, select bank1
  1936  0DAE  00A0               	movwf	??___fltol^(0+128)
  1937  0DAF  0820               	movf	??___fltol^(0+128),w
  1938  0DB0  1283               	bcf	3,5	;RP0=0, select bank0
  1939  0DB1  1303               	bcf	3,6	;RP1=0, select bank0
  1940  0DB2  07ED               	addwf	___fltol@exp1,f
  1941  0DB3  1D03               	btfss	3,2
  1942  0DB4  2DB6               	goto	u1811
  1943  0DB5  2DB7               	goto	u1810
  1944  0DB6                     u1811:
  1945  0DB6  2DA2               	goto	l1713
  1946  0DB7                     u1810:
  1947  0DB7  2DD7               	goto	l1723
  1948  0DB8                     l1715:
  1949  0DB8  3020               	movlw	32
  1950  0DB9  026D               	subwf	___fltol@exp1,w
  1951  0DBA  1C03               	skipc
  1952  0DBB  2DBD               	goto	u1821
  1953  0DBC  2DBE               	goto	u1820
  1954  0DBD                     u1821:
  1955  0DBD  2DD2               	goto	l468
  1956  0DBE                     u1820:
  1957  0DBE  2D5D               	goto	l1693
  1958  0DBF                     l1721:
  1959  0DBF  3001               	movlw	1
  1960  0DC0  1683               	bsf	3,5	;RP0=1, select bank1
  1961  0DC1  1303               	bcf	3,6	;RP1=0, select bank1
  1962  0DC2  00A0               	movwf	??___fltol^(0+128)
  1963  0DC3                     u1835:
  1964  0DC3  1003               	clrc
  1965  0DC4  1283               	bcf	3,5	;RP0=0, select bank0
  1966  0DC5  1303               	bcf	3,6	;RP1=0, select bank0
  1967  0DC6  0DE8               	rlf	___fltol@f1,f
  1968  0DC7  0DE9               	rlf	___fltol@f1+1,f
  1969  0DC8  0DEA               	rlf	___fltol@f1+2,f
  1970  0DC9  0DEB               	rlf	___fltol@f1+3,f
  1971  0DCA  1683               	bsf	3,5	;RP0=1, select bank1
  1972  0DCB  1303               	bcf	3,6	;RP1=0, select bank1
  1973  0DCC  0BA0               	decfsz	??___fltol^(0+128),f
  1974  0DCD  2DC3               	goto	u1835
  1975  0DCE  3001               	movlw	1
  1976  0DCF  1283               	bcf	3,5	;RP0=0, select bank0
  1977  0DD0  1303               	bcf	3,6	;RP1=0, select bank0
  1978  0DD1  02ED               	subwf	___fltol@exp1,f
  1979  0DD2                     l468:
  1980  0DD2  086D               	movf	___fltol@exp1,w
  1981  0DD3  1D03               	btfss	3,2
  1982  0DD4  2DD6               	goto	u1841
  1983  0DD5  2DD7               	goto	u1840
  1984  0DD6                     u1841:
  1985  0DD6  2DBF               	goto	l1721
  1986  0DD7                     u1840:
  1987  0DD7                     l1723:
  1988  0DD7  086C               	movf	___fltol@sign1,w
  1989  0DD8  1903               	btfsc	3,2
  1990  0DD9  2DDB               	goto	u1851
  1991  0DDA  2DDC               	goto	u1850
  1992  0DDB                     u1851:
  1993  0DDB  2DE7               	goto	l471
  1994  0DDC                     u1850:
  1995  0DDC                     l1725:
  1996  0DDC  09E8               	comf	___fltol@f1,f
  1997  0DDD  09E9               	comf	___fltol@f1+1,f
  1998  0DDE  09EA               	comf	___fltol@f1+2,f
  1999  0DDF  09EB               	comf	___fltol@f1+3,f
  2000  0DE0  0AE8               	incf	___fltol@f1,f
  2001  0DE1  1903               	skipnz
  2002  0DE2  0AE9               	incf	___fltol@f1+1,f
  2003  0DE3  1903               	skipnz
  2004  0DE4  0AEA               	incf	___fltol@f1+2,f
  2005  0DE5  1903               	skipnz
  2006  0DE6  0AEB               	incf	___fltol@f1+3,f
  2007  0DE7                     l471:
  2008  0DE7                     l461:
  2009  0DE7  0008               	return
  2010  0DE8                     __end_of___fltol:
  2011                           
  2012                           	psect	text6
  2013  0490                     __ptext6:	
  2014 ;; *************** function ___flmul *****************
  2015 ;; Defined at:
  2016 ;;		line 8 in file "C:\Program Files\Microchip\xc8\v2.31\pic\sources\c90\common\sprcmul.c"
  2017 ;; Parameters:    Size  Location     Type
  2018 ;;  b               4    0[BANK0 ] long 
  2019 ;;  a               4    4[BANK0 ] long 
  2020 ;; Auto vars:     Size  Location     Type
  2021 ;;  prod            4   20[BANK0 ] struct .
  2022 ;;  grs             4   14[BANK0 ] unsigned long 
  2023 ;;  temp            2   24[BANK0 ] struct .
  2024 ;;  bexp            1   19[BANK0 ] unsigned char 
  2025 ;;  aexp            1   18[BANK0 ] unsigned char 
  2026 ;;  sign            1   13[BANK0 ] unsigned char 
  2027 ;; Return value:  Size  Location     Type
  2028 ;;                  4    0[BANK0 ] unsigned char 
  2029 ;; Registers used:
  2030 ;;		wreg, status,2, status,0, btemp+1, pclath, cstack
  2031 ;; Tracked objects:
  2032 ;;		On entry : 0/0
  2033 ;;		On exit  : 0/0
  2034 ;;		Unchanged: 0/0
  2035 ;; Data sizes:     COMMON   BANK0   BANK1   BANK3   BANK2
  2036 ;;      Params:         0       8       0       0       0
  2037 ;;      Locals:         0      13       0       0       0
  2038 ;;      Temps:          0       5       0       0       0
  2039 ;;      Totals:         0      26       0       0       0
  2040 ;;Total ram usage:       26 bytes
  2041 ;; Hardware stack levels used:    1
  2042 ;; Hardware stack levels required when called:    1
  2043 ;; This function calls:
  2044 ;;		__Umul8_16
  2045 ;; This function is called by:
  2046 ;;		_main
  2047 ;; This function uses a non-reentrant model
  2048 ;;
  2049                           
  2050                           
  2051                           ;psect for function ___flmul
  2052  0490                     ___flmul:
  2053  0490                     l2063:	
  2054                           ;incstack = 0
  2055                           ; Regs used in ___flmul: [wreg+status,2+status,0+btemp+1+pclath+cstack]
  2056                           
  2057  0490  1283               	bcf	3,5	;RP0=0, select bank0
  2058  0491  1303               	bcf	3,6	;RP1=0, select bank0
  2059  0492  0823               	movf	___flmul@b+3,w
  2060  0493  3980               	andlw	128
  2061  0494  00A8               	movwf	??___flmul
  2062  0495  0828               	movf	??___flmul,w
  2063  0496  00AD               	movwf	___flmul@sign
  2064  0497                     l2065:
  2065  0497  0823               	movf	___flmul@b+3,w
  2066  0498  00A8               	movwf	??___flmul
  2067  0499  0728               	addwf	??___flmul,w
  2068  049A  00A9               	movwf	??___flmul+1
  2069  049B  0829               	movf	??___flmul+1,w
  2070  049C  00B3               	movwf	___flmul@bexp
  2071  049D                     l2067:
  2072  049D  1FA2               	btfss	___flmul@b+2,7
  2073  049E  2CA0               	goto	u2611
  2074  049F  2CA1               	goto	u2610
  2075  04A0                     u2611:
  2076  04A0  2CA2               	goto	l2071
  2077  04A1                     u2610:
  2078  04A1                     l2069:
  2079  04A1  1433               	bsf	___flmul@bexp,0
  2080  04A2                     l2071:
  2081  04A2  0833               	movf	___flmul@bexp,w
  2082  04A3  1903               	btfsc	3,2
  2083  04A4  2CA6               	goto	u2621
  2084  04A5  2CA7               	goto	u2620
  2085  04A6                     u2621:
  2086  04A6  2CB6               	goto	l2079
  2087  04A7                     u2620:
  2088  04A7                     l2073:
  2089  04A7  0A33               	incf	___flmul@bexp,w
  2090  04A8  1D03               	btfss	3,2
  2091  04A9  2CAB               	goto	u2631
  2092  04AA  2CAC               	goto	u2630
  2093  04AB                     u2631:
  2094  04AB  2CB4               	goto	l2077
  2095  04AC                     u2630:
  2096  04AC                     l2075:
  2097  04AC  3000               	movlw	0
  2098  04AD  00A3               	movwf	___flmul@b+3
  2099  04AE  3000               	movlw	0
  2100  04AF  00A2               	movwf	___flmul@b+2
  2101  04B0  3000               	movlw	0
  2102  04B1  00A1               	movwf	___flmul@b+1
  2103  04B2  3000               	movlw	0
  2104  04B3  00A0               	movwf	___flmul@b
  2105  04B4                     l2077:
  2106  04B4  17A2               	bsf	___flmul@b+2,7
  2107  04B5  2CBE               	goto	l2081
  2108  04B6                     l2079:
  2109  04B6  3000               	movlw	0
  2110  04B7  00A3               	movwf	___flmul@b+3
  2111  04B8  3000               	movlw	0
  2112  04B9  00A2               	movwf	___flmul@b+2
  2113  04BA  3000               	movlw	0
  2114  04BB  00A1               	movwf	___flmul@b+1
  2115  04BC  3000               	movlw	0
  2116  04BD  00A0               	movwf	___flmul@b
  2117  04BE                     l2081:
  2118  04BE  0827               	movf	___flmul@a+3,w
  2119  04BF  3980               	andlw	128
  2120  04C0  00A8               	movwf	??___flmul
  2121  04C1  0828               	movf	??___flmul,w
  2122  04C2  06AD               	xorwf	___flmul@sign,f
  2123  04C3                     l2083:
  2124  04C3  0827               	movf	___flmul@a+3,w
  2125  04C4  00A8               	movwf	??___flmul
  2126  04C5  0728               	addwf	??___flmul,w
  2127  04C6  00A9               	movwf	??___flmul+1
  2128  04C7  0829               	movf	??___flmul+1,w
  2129  04C8  00B2               	movwf	___flmul@aexp
  2130  04C9                     l2085:
  2131  04C9  1FA6               	btfss	___flmul@a+2,7
  2132  04CA  2CCC               	goto	u2641
  2133  04CB  2CCD               	goto	u2640
  2134  04CC                     u2641:
  2135  04CC  2CCE               	goto	l2089
  2136  04CD                     u2640:
  2137  04CD                     l2087:
  2138  04CD  1432               	bsf	___flmul@aexp,0
  2139  04CE                     l2089:
  2140  04CE  0832               	movf	___flmul@aexp,w
  2141  04CF  1903               	btfsc	3,2
  2142  04D0  2CD2               	goto	u2651
  2143  04D1  2CD3               	goto	u2650
  2144  04D2                     u2651:
  2145  04D2  2CE2               	goto	l2097
  2146  04D3                     u2650:
  2147  04D3                     l2091:
  2148  04D3  0A32               	incf	___flmul@aexp,w
  2149  04D4  1D03               	btfss	3,2
  2150  04D5  2CD7               	goto	u2661
  2151  04D6  2CD8               	goto	u2660
  2152  04D7                     u2661:
  2153  04D7  2CE0               	goto	l2095
  2154  04D8                     u2660:
  2155  04D8                     l2093:
  2156  04D8  3000               	movlw	0
  2157  04D9  00A7               	movwf	___flmul@a+3
  2158  04DA  3000               	movlw	0
  2159  04DB  00A6               	movwf	___flmul@a+2
  2160  04DC  3000               	movlw	0
  2161  04DD  00A5               	movwf	___flmul@a+1
  2162  04DE  3000               	movlw	0
  2163  04DF  00A4               	movwf	___flmul@a
  2164  04E0                     l2095:
  2165  04E0  17A6               	bsf	___flmul@a+2,7
  2166  04E1  2CEA               	goto	l2099
  2167  04E2                     l2097:
  2168  04E2  3000               	movlw	0
  2169  04E3  00A7               	movwf	___flmul@a+3
  2170  04E4  3000               	movlw	0
  2171  04E5  00A6               	movwf	___flmul@a+2
  2172  04E6  3000               	movlw	0
  2173  04E7  00A5               	movwf	___flmul@a+1
  2174  04E8  3000               	movlw	0
  2175  04E9  00A4               	movwf	___flmul@a
  2176  04EA                     l2099:
  2177  04EA  0832               	movf	___flmul@aexp,w
  2178  04EB  1903               	btfsc	3,2
  2179  04EC  2CEE               	goto	u2671
  2180  04ED  2CEF               	goto	u2670
  2181  04EE                     u2671:
  2182  04EE  2CF4               	goto	l2103
  2183  04EF                     u2670:
  2184  04EF                     l2101:
  2185  04EF  0833               	movf	___flmul@bexp,w
  2186  04F0  1D03               	btfss	3,2
  2187  04F1  2CF3               	goto	u2681
  2188  04F2  2CF4               	goto	u2680
  2189  04F3                     u2681:
  2190  04F3  2CFD               	goto	l2107
  2191  04F4                     u2680:
  2192  04F4                     l2103:
  2193  04F4  3000               	movlw	0
  2194  04F5  00A3               	movwf	?___flmul+3
  2195  04F6  3000               	movlw	0
  2196  04F7  00A2               	movwf	?___flmul+2
  2197  04F8  3000               	movlw	0
  2198  04F9  00A1               	movwf	?___flmul+1
  2199  04FA  3000               	movlw	0
  2200  04FB  00A0               	movwf	?___flmul
  2201  04FC  2FF0               	goto	l664
  2202  04FD                     l2107:
  2203  04FD  0820               	movf	___flmul@b,w
  2204  04FE  00A8               	movwf	??___flmul
  2205  04FF  0828               	movf	??___flmul,w
  2206  0500  00F0               	movwf	__Umul8_16@multiplicand
  2207  0501  0826               	movf	___flmul@a+2,w
  2208  0502  120A  118A  2004  120A  118A  	fcall	__Umul8_16
  2209  0507  0871               	movf	?__Umul8_16+1,w
  2210  0508  1283               	bcf	3,5	;RP0=0, select bank0
  2211  0509  1303               	bcf	3,6	;RP1=0, select bank0
  2212  050A  00B9               	movwf	___flmul@temp+1
  2213  050B  0870               	movf	?__Umul8_16,w
  2214  050C  00B8               	movwf	___flmul@temp
  2215  050D                     l2109:
  2216  050D  0838               	movf	___flmul@temp,w
  2217  050E  00A8               	movwf	??___flmul
  2218  050F  01A9               	clrf	??___flmul+1
  2219  0510  01AA               	clrf	??___flmul+2
  2220  0511  01AB               	clrf	??___flmul+3
  2221  0512  082B               	movf	??___flmul+3,w
  2222  0513  00B1               	movwf	___flmul@grs+3
  2223  0514  082A               	movf	??___flmul+2,w
  2224  0515  00B0               	movwf	___flmul@grs+2
  2225  0516  0829               	movf	??___flmul+1,w
  2226  0517  00AF               	movwf	___flmul@grs+1
  2227  0518  0828               	movf	??___flmul,w
  2228  0519  00AE               	movwf	___flmul@grs
  2229  051A                     l2111:
  2230  051A  0839               	movf	___flmul@temp+1,w
  2231  051B  00A8               	movwf	??___flmul
  2232  051C  01A9               	clrf	??___flmul+1
  2233  051D  01AA               	clrf	??___flmul+2
  2234  051E  01AB               	clrf	??___flmul+3
  2235  051F  082B               	movf	??___flmul+3,w
  2236  0520  00B7               	movwf	___flmul@prod+3
  2237  0521  082A               	movf	??___flmul+2,w
  2238  0522  00B6               	movwf	___flmul@prod+2
  2239  0523  0829               	movf	??___flmul+1,w
  2240  0524  00B5               	movwf	___flmul@prod+1
  2241  0525  0828               	movf	??___flmul,w
  2242  0526  00B4               	movwf	___flmul@prod
  2243  0527  0821               	movf	___flmul@b+1,w
  2244  0528  00A8               	movwf	??___flmul
  2245  0529  0828               	movf	??___flmul,w
  2246  052A  00F0               	movwf	__Umul8_16@multiplicand
  2247  052B  0825               	movf	___flmul@a+1,w
  2248  052C  120A  118A  2004  120A  118A  	fcall	__Umul8_16
  2249  0531  0871               	movf	?__Umul8_16+1,w
  2250  0532  1283               	bcf	3,5	;RP0=0, select bank0
  2251  0533  1303               	bcf	3,6	;RP1=0, select bank0
  2252  0534  00B9               	movwf	___flmul@temp+1
  2253  0535  0870               	movf	?__Umul8_16,w
  2254  0536  00B8               	movwf	___flmul@temp
  2255  0537                     l2113:
  2256  0537  0838               	movf	___flmul@temp,w
  2257  0538  00A8               	movwf	??___flmul
  2258  0539  01A9               	clrf	??___flmul+1
  2259  053A  01AA               	clrf	??___flmul+2
  2260  053B  01AB               	clrf	??___flmul+3
  2261  053C  0828               	movf	??___flmul,w
  2262  053D  07AE               	addwf	___flmul@grs,f
  2263  053E  0829               	movf	??___flmul+1,w
  2264  053F  1103               	clrz
  2265  0540  1803               	skipnc
  2266  0541  3E01               	addlw	1
  2267  0542  1903               	skipnz
  2268  0543  2D45               	goto	u2691
  2269  0544  07AF               	addwf	___flmul@grs+1,f
  2270  0545                     u2691:
  2271  0545  082A               	movf	??___flmul+2,w
  2272  0546  1103               	clrz
  2273  0547  1803               	skipnc
  2274  0548  3E01               	addlw	1
  2275  0549  1903               	skipnz
  2276  054A  2D4C               	goto	u2692
  2277  054B  07B0               	addwf	___flmul@grs+2,f
  2278  054C                     u2692:
  2279  054C  082B               	movf	??___flmul+3,w
  2280  054D  1103               	clrz
  2281  054E  1803               	skipnc
  2282  054F  3E01               	addlw	1
  2283  0550  1903               	skipnz
  2284  0551  2D53               	goto	u2693
  2285  0552  07B1               	addwf	___flmul@grs+3,f
  2286  0553                     u2693:
  2287  0553                     l2115:
  2288  0553  0839               	movf	___flmul@temp+1,w
  2289  0554  00A8               	movwf	??___flmul
  2290  0555  01A9               	clrf	??___flmul+1
  2291  0556  01AA               	clrf	??___flmul+2
  2292  0557  01AB               	clrf	??___flmul+3
  2293  0558  0828               	movf	??___flmul,w
  2294  0559  07B4               	addwf	___flmul@prod,f
  2295  055A  0829               	movf	??___flmul+1,w
  2296  055B  1103               	clrz
  2297  055C  1803               	skipnc
  2298  055D  3E01               	addlw	1
  2299  055E  1903               	skipnz
  2300  055F  2D61               	goto	u2701
  2301  0560  07B5               	addwf	___flmul@prod+1,f
  2302  0561                     u2701:
  2303  0561  082A               	movf	??___flmul+2,w
  2304  0562  1103               	clrz
  2305  0563  1803               	skipnc
  2306  0564  3E01               	addlw	1
  2307  0565  1903               	skipnz
  2308  0566  2D68               	goto	u2702
  2309  0567  07B6               	addwf	___flmul@prod+2,f
  2310  0568                     u2702:
  2311  0568  082B               	movf	??___flmul+3,w
  2312  0569  1103               	clrz
  2313  056A  1803               	skipnc
  2314  056B  3E01               	addlw	1
  2315  056C  1903               	skipnz
  2316  056D  2D6F               	goto	u2703
  2317  056E  07B7               	addwf	___flmul@prod+3,f
  2318  056F                     u2703:
  2319  056F  0822               	movf	___flmul@b+2,w
  2320  0570  00A8               	movwf	??___flmul
  2321  0571  0828               	movf	??___flmul,w
  2322  0572  00F0               	movwf	__Umul8_16@multiplicand
  2323  0573  0824               	movf	___flmul@a,w
  2324  0574  120A  118A  2004  120A  118A  	fcall	__Umul8_16
  2325  0579  0871               	movf	?__Umul8_16+1,w
  2326  057A  1283               	bcf	3,5	;RP0=0, select bank0
  2327  057B  1303               	bcf	3,6	;RP1=0, select bank0
  2328  057C  00B9               	movwf	___flmul@temp+1
  2329  057D  0870               	movf	?__Umul8_16,w
  2330  057E  00B8               	movwf	___flmul@temp
  2331  057F                     l2117:
  2332  057F  0838               	movf	___flmul@temp,w
  2333  0580  00A8               	movwf	??___flmul
  2334  0581  01A9               	clrf	??___flmul+1
  2335  0582  01AA               	clrf	??___flmul+2
  2336  0583  01AB               	clrf	??___flmul+3
  2337  0584  0828               	movf	??___flmul,w
  2338  0585  07AE               	addwf	___flmul@grs,f
  2339  0586  0829               	movf	??___flmul+1,w
  2340  0587  1103               	clrz
  2341  0588  1803               	skipnc
  2342  0589  3E01               	addlw	1
  2343  058A  1903               	skipnz
  2344  058B  2D8D               	goto	u2711
  2345  058C  07AF               	addwf	___flmul@grs+1,f
  2346  058D                     u2711:
  2347  058D  082A               	movf	??___flmul+2,w
  2348  058E  1103               	clrz
  2349  058F  1803               	skipnc
  2350  0590  3E01               	addlw	1
  2351  0591  1903               	skipnz
  2352  0592  2D94               	goto	u2712
  2353  0593  07B0               	addwf	___flmul@grs+2,f
  2354  0594                     u2712:
  2355  0594  082B               	movf	??___flmul+3,w
  2356  0595  1103               	clrz
  2357  0596  1803               	skipnc
  2358  0597  3E01               	addlw	1
  2359  0598  1903               	skipnz
  2360  0599  2D9B               	goto	u2713
  2361  059A  07B1               	addwf	___flmul@grs+3,f
  2362  059B                     u2713:
  2363  059B                     l2119:
  2364  059B  0839               	movf	___flmul@temp+1,w
  2365  059C  00A8               	movwf	??___flmul
  2366  059D  01A9               	clrf	??___flmul+1
  2367  059E  01AA               	clrf	??___flmul+2
  2368  059F  01AB               	clrf	??___flmul+3
  2369  05A0  0828               	movf	??___flmul,w
  2370  05A1  07B4               	addwf	___flmul@prod,f
  2371  05A2  0829               	movf	??___flmul+1,w
  2372  05A3  1103               	clrz
  2373  05A4  1803               	skipnc
  2374  05A5  3E01               	addlw	1
  2375  05A6  1903               	skipnz
  2376  05A7  2DA9               	goto	u2721
  2377  05A8  07B5               	addwf	___flmul@prod+1,f
  2378  05A9                     u2721:
  2379  05A9  082A               	movf	??___flmul+2,w
  2380  05AA  1103               	clrz
  2381  05AB  1803               	skipnc
  2382  05AC  3E01               	addlw	1
  2383  05AD  1903               	skipnz
  2384  05AE  2DB0               	goto	u2722
  2385  05AF  07B6               	addwf	___flmul@prod+2,f
  2386  05B0                     u2722:
  2387  05B0  082B               	movf	??___flmul+3,w
  2388  05B1  1103               	clrz
  2389  05B2  1803               	skipnc
  2390  05B3  3E01               	addlw	1
  2391  05B4  1903               	skipnz
  2392  05B5  2DB7               	goto	u2723
  2393  05B6  07B7               	addwf	___flmul@prod+3,f
  2394  05B7                     u2723:
  2395  05B7                     l2121:
  2396  05B7  3008               	movlw	8
  2397  05B8  00A8               	movwf	??___flmul
  2398  05B9                     u2735:
  2399  05B9  1003               	clrc
  2400  05BA  0DAE               	rlf	___flmul@grs,f
  2401  05BB  0DAF               	rlf	___flmul@grs+1,f
  2402  05BC  0DB0               	rlf	___flmul@grs+2,f
  2403  05BD  0DB1               	rlf	___flmul@grs+3,f
  2404  05BE  0BA8               	decfsz	??___flmul,f
  2405  05BF  2DB9               	goto	u2735
  2406  05C0                     l2123:
  2407  05C0  0821               	movf	___flmul@b+1,w
  2408  05C1  00A8               	movwf	??___flmul
  2409  05C2  0828               	movf	??___flmul,w
  2410  05C3  00F0               	movwf	__Umul8_16@multiplicand
  2411  05C4  0824               	movf	___flmul@a,w
  2412  05C5  120A  118A  2004  120A  118A  	fcall	__Umul8_16
  2413  05CA  0871               	movf	?__Umul8_16+1,w
  2414  05CB  1283               	bcf	3,5	;RP0=0, select bank0
  2415  05CC  1303               	bcf	3,6	;RP1=0, select bank0
  2416  05CD  00B9               	movwf	___flmul@temp+1
  2417  05CE  0870               	movf	?__Umul8_16,w
  2418  05CF  00B8               	movwf	___flmul@temp
  2419  05D0                     l2125:
  2420  05D0  0838               	movf	___flmul@temp,w
  2421  05D1  00A8               	movwf	??___flmul
  2422  05D2  0839               	movf	___flmul@temp+1,w
  2423  05D3  00A9               	movwf	??___flmul+1
  2424  05D4  01AA               	clrf	??___flmul+2
  2425  05D5  01AB               	clrf	??___flmul+3
  2426  05D6  0828               	movf	??___flmul,w
  2427  05D7  07AE               	addwf	___flmul@grs,f
  2428  05D8  0829               	movf	??___flmul+1,w
  2429  05D9  1103               	clrz
  2430  05DA  1803               	skipnc
  2431  05DB  3E01               	addlw	1
  2432  05DC  1903               	skipnz
  2433  05DD  2DDF               	goto	u2741
  2434  05DE  07AF               	addwf	___flmul@grs+1,f
  2435  05DF                     u2741:
  2436  05DF  082A               	movf	??___flmul+2,w
  2437  05E0  1103               	clrz
  2438  05E1  1803               	skipnc
  2439  05E2  3E01               	addlw	1
  2440  05E3  1903               	skipnz
  2441  05E4  2DE6               	goto	u2742
  2442  05E5  07B0               	addwf	___flmul@grs+2,f
  2443  05E6                     u2742:
  2444  05E6  082B               	movf	??___flmul+3,w
  2445  05E7  1103               	clrz
  2446  05E8  1803               	skipnc
  2447  05E9  3E01               	addlw	1
  2448  05EA  1903               	skipnz
  2449  05EB  2DED               	goto	u2743
  2450  05EC  07B1               	addwf	___flmul@grs+3,f
  2451  05ED                     u2743:
  2452  05ED                     l2127:
  2453  05ED  0820               	movf	___flmul@b,w
  2454  05EE  00A8               	movwf	??___flmul
  2455  05EF  0828               	movf	??___flmul,w
  2456  05F0  00F0               	movwf	__Umul8_16@multiplicand
  2457  05F1  0825               	movf	___flmul@a+1,w
  2458  05F2  120A  118A  2004  120A  118A  	fcall	__Umul8_16
  2459  05F7  0871               	movf	?__Umul8_16+1,w
  2460  05F8  1283               	bcf	3,5	;RP0=0, select bank0
  2461  05F9  1303               	bcf	3,6	;RP1=0, select bank0
  2462  05FA  00B9               	movwf	___flmul@temp+1
  2463  05FB  0870               	movf	?__Umul8_16,w
  2464  05FC  00B8               	movwf	___flmul@temp
  2465  05FD                     l2129:
  2466  05FD  0838               	movf	___flmul@temp,w
  2467  05FE  00A8               	movwf	??___flmul
  2468  05FF  0839               	movf	___flmul@temp+1,w
  2469  0600  00A9               	movwf	??___flmul+1
  2470  0601  01AA               	clrf	??___flmul+2
  2471  0602  01AB               	clrf	??___flmul+3
  2472  0603  0828               	movf	??___flmul,w
  2473  0604  07AE               	addwf	___flmul@grs,f
  2474  0605  0829               	movf	??___flmul+1,w
  2475  0606  1103               	clrz
  2476  0607  1803               	skipnc
  2477  0608  3E01               	addlw	1
  2478  0609  1903               	skipnz
  2479  060A  2E0C               	goto	u2751
  2480  060B  07AF               	addwf	___flmul@grs+1,f
  2481  060C                     u2751:
  2482  060C  082A               	movf	??___flmul+2,w
  2483  060D  1103               	clrz
  2484  060E  1803               	skipnc
  2485  060F  3E01               	addlw	1
  2486  0610  1903               	skipnz
  2487  0611  2E13               	goto	u2752
  2488  0612  07B0               	addwf	___flmul@grs+2,f
  2489  0613                     u2752:
  2490  0613  082B               	movf	??___flmul+3,w
  2491  0614  1103               	clrz
  2492  0615  1803               	skipnc
  2493  0616  3E01               	addlw	1
  2494  0617  1903               	skipnz
  2495  0618  2E1A               	goto	u2753
  2496  0619  07B1               	addwf	___flmul@grs+3,f
  2497  061A                     u2753:
  2498  061A                     l2131:
  2499  061A  3008               	movlw	8
  2500  061B  00A8               	movwf	??___flmul
  2501  061C                     u2765:
  2502  061C  1003               	clrc
  2503  061D  0DAE               	rlf	___flmul@grs,f
  2504  061E  0DAF               	rlf	___flmul@grs+1,f
  2505  061F  0DB0               	rlf	___flmul@grs+2,f
  2506  0620  0DB1               	rlf	___flmul@grs+3,f
  2507  0621  0BA8               	decfsz	??___flmul,f
  2508  0622  2E1C               	goto	u2765
  2509  0623  0820               	movf	___flmul@b,w
  2510  0624  00A8               	movwf	??___flmul
  2511  0625  0828               	movf	??___flmul,w
  2512  0626  00F0               	movwf	__Umul8_16@multiplicand
  2513  0627  0824               	movf	___flmul@a,w
  2514  0628  120A  118A  2004  120A  118A  	fcall	__Umul8_16
  2515  062D  0871               	movf	?__Umul8_16+1,w
  2516  062E  1283               	bcf	3,5	;RP0=0, select bank0
  2517  062F  1303               	bcf	3,6	;RP1=0, select bank0
  2518  0630  00B9               	movwf	___flmul@temp+1
  2519  0631  0870               	movf	?__Umul8_16,w
  2520  0632  00B8               	movwf	___flmul@temp
  2521  0633                     l2133:
  2522  0633  0838               	movf	___flmul@temp,w
  2523  0634  00A8               	movwf	??___flmul
  2524  0635  0839               	movf	___flmul@temp+1,w
  2525  0636  00A9               	movwf	??___flmul+1
  2526  0637  01AA               	clrf	??___flmul+2
  2527  0638  01AB               	clrf	??___flmul+3
  2528  0639  0828               	movf	??___flmul,w
  2529  063A  07AE               	addwf	___flmul@grs,f
  2530  063B  0829               	movf	??___flmul+1,w
  2531  063C  1103               	clrz
  2532  063D  1803               	skipnc
  2533  063E  3E01               	addlw	1
  2534  063F  1903               	skipnz
  2535  0640  2E42               	goto	u2771
  2536  0641  07AF               	addwf	___flmul@grs+1,f
  2537  0642                     u2771:
  2538  0642  082A               	movf	??___flmul+2,w
  2539  0643  1103               	clrz
  2540  0644  1803               	skipnc
  2541  0645  3E01               	addlw	1
  2542  0646  1903               	skipnz
  2543  0647  2E49               	goto	u2772
  2544  0648  07B0               	addwf	___flmul@grs+2,f
  2545  0649                     u2772:
  2546  0649  082B               	movf	??___flmul+3,w
  2547  064A  1103               	clrz
  2548  064B  1803               	skipnc
  2549  064C  3E01               	addlw	1
  2550  064D  1903               	skipnz
  2551  064E  2E50               	goto	u2773
  2552  064F  07B1               	addwf	___flmul@grs+3,f
  2553  0650                     u2773:
  2554  0650                     l2135:
  2555  0650  0821               	movf	___flmul@b+1,w
  2556  0651  00A8               	movwf	??___flmul
  2557  0652  0828               	movf	??___flmul,w
  2558  0653  00F0               	movwf	__Umul8_16@multiplicand
  2559  0654  0826               	movf	___flmul@a+2,w
  2560  0655  120A  118A  2004  120A  118A  	fcall	__Umul8_16
  2561  065A  0871               	movf	?__Umul8_16+1,w
  2562  065B  1283               	bcf	3,5	;RP0=0, select bank0
  2563  065C  1303               	bcf	3,6	;RP1=0, select bank0
  2564  065D  00B9               	movwf	___flmul@temp+1
  2565  065E  0870               	movf	?__Umul8_16,w
  2566  065F  00B8               	movwf	___flmul@temp
  2567  0660  0838               	movf	___flmul@temp,w
  2568  0661  00A8               	movwf	??___flmul
  2569  0662  0839               	movf	___flmul@temp+1,w
  2570  0663  00A9               	movwf	??___flmul+1
  2571  0664  01AA               	clrf	??___flmul+2
  2572  0665  01AB               	clrf	??___flmul+3
  2573  0666  0828               	movf	??___flmul,w
  2574  0667  07B4               	addwf	___flmul@prod,f
  2575  0668  0829               	movf	??___flmul+1,w
  2576  0669  1103               	clrz
  2577  066A  1803               	skipnc
  2578  066B  3E01               	addlw	1
  2579  066C  1903               	skipnz
  2580  066D  2E6F               	goto	u2781
  2581  066E  07B5               	addwf	___flmul@prod+1,f
  2582  066F                     u2781:
  2583  066F  082A               	movf	??___flmul+2,w
  2584  0670  1103               	clrz
  2585  0671  1803               	skipnc
  2586  0672  3E01               	addlw	1
  2587  0673  1903               	skipnz
  2588  0674  2E76               	goto	u2782
  2589  0675  07B6               	addwf	___flmul@prod+2,f
  2590  0676                     u2782:
  2591  0676  082B               	movf	??___flmul+3,w
  2592  0677  1103               	clrz
  2593  0678  1803               	skipnc
  2594  0679  3E01               	addlw	1
  2595  067A  1903               	skipnz
  2596  067B  2E7D               	goto	u2783
  2597  067C  07B7               	addwf	___flmul@prod+3,f
  2598  067D                     u2783:
  2599  067D                     l2137:
  2600  067D  0822               	movf	___flmul@b+2,w
  2601  067E  00A8               	movwf	??___flmul
  2602  067F  0828               	movf	??___flmul,w
  2603  0680  00F0               	movwf	__Umul8_16@multiplicand
  2604  0681  0825               	movf	___flmul@a+1,w
  2605  0682  120A  118A  2004  120A  118A  	fcall	__Umul8_16
  2606  0687  0871               	movf	?__Umul8_16+1,w
  2607  0688  1283               	bcf	3,5	;RP0=0, select bank0
  2608  0689  1303               	bcf	3,6	;RP1=0, select bank0
  2609  068A  00B9               	movwf	___flmul@temp+1
  2610  068B  0870               	movf	?__Umul8_16,w
  2611  068C  00B8               	movwf	___flmul@temp
  2612  068D                     l2139:
  2613  068D  0838               	movf	___flmul@temp,w
  2614  068E  00A8               	movwf	??___flmul
  2615  068F  0839               	movf	___flmul@temp+1,w
  2616  0690  00A9               	movwf	??___flmul+1
  2617  0691  01AA               	clrf	??___flmul+2
  2618  0692  01AB               	clrf	??___flmul+3
  2619  0693  0828               	movf	??___flmul,w
  2620  0694  07B4               	addwf	___flmul@prod,f
  2621  0695  0829               	movf	??___flmul+1,w
  2622  0696  1103               	clrz
  2623  0697  1803               	skipnc
  2624  0698  3E01               	addlw	1
  2625  0699  1903               	skipnz
  2626  069A  2E9C               	goto	u2791
  2627  069B  07B5               	addwf	___flmul@prod+1,f
  2628  069C                     u2791:
  2629  069C  082A               	movf	??___flmul+2,w
  2630  069D  1103               	clrz
  2631  069E  1803               	skipnc
  2632  069F  3E01               	addlw	1
  2633  06A0  1903               	skipnz
  2634  06A1  2EA3               	goto	u2792
  2635  06A2  07B6               	addwf	___flmul@prod+2,f
  2636  06A3                     u2792:
  2637  06A3  082B               	movf	??___flmul+3,w
  2638  06A4  1103               	clrz
  2639  06A5  1803               	skipnc
  2640  06A6  3E01               	addlw	1
  2641  06A7  1903               	skipnz
  2642  06A8  2EAA               	goto	u2793
  2643  06A9  07B7               	addwf	___flmul@prod+3,f
  2644  06AA                     u2793:
  2645  06AA  0822               	movf	___flmul@b+2,w
  2646  06AB  00A8               	movwf	??___flmul
  2647  06AC  0828               	movf	??___flmul,w
  2648  06AD  00F0               	movwf	__Umul8_16@multiplicand
  2649  06AE  0826               	movf	___flmul@a+2,w
  2650  06AF  120A  118A  2004  120A  118A  	fcall	__Umul8_16
  2651  06B4  0871               	movf	?__Umul8_16+1,w
  2652  06B5  1283               	bcf	3,5	;RP0=0, select bank0
  2653  06B6  1303               	bcf	3,6	;RP1=0, select bank0
  2654  06B7  00B9               	movwf	___flmul@temp+1
  2655  06B8  0870               	movf	?__Umul8_16,w
  2656  06B9  00B8               	movwf	___flmul@temp
  2657  06BA                     l2141:
  2658  06BA  0838               	movf	___flmul@temp,w
  2659  06BB  00A8               	movwf	??___flmul
  2660  06BC  0839               	movf	___flmul@temp+1,w
  2661  06BD  00A9               	movwf	??___flmul+1
  2662  06BE  01AA               	clrf	??___flmul+2
  2663  06BF  01AB               	clrf	??___flmul+3
  2664  06C0  3008               	movlw	8
  2665  06C1                     u2805:
  2666  06C1  1003               	clrc
  2667  06C2  0DA8               	rlf	??___flmul,f
  2668  06C3  0DA9               	rlf	??___flmul+1,f
  2669  06C4  0DAA               	rlf	??___flmul+2,f
  2670  06C5  0DAB               	rlf	??___flmul+3,f
  2671  06C6                     u2800:
  2672  06C6  3EFF               	addlw	-1
  2673  06C7  1D03               	skipz
  2674  06C8  2EC1               	goto	u2805
  2675  06C9  0828               	movf	??___flmul,w
  2676  06CA  07B4               	addwf	___flmul@prod,f
  2677  06CB  0829               	movf	??___flmul+1,w
  2678  06CC  1103               	clrz
  2679  06CD  1803               	skipnc
  2680  06CE  3E01               	addlw	1
  2681  06CF  1903               	skipnz
  2682  06D0  2ED2               	goto	u2811
  2683  06D1  07B5               	addwf	___flmul@prod+1,f
  2684  06D2                     u2811:
  2685  06D2  082A               	movf	??___flmul+2,w
  2686  06D3  1103               	clrz
  2687  06D4  1803               	skipnc
  2688  06D5  3E01               	addlw	1
  2689  06D6  1903               	skipnz
  2690  06D7  2ED9               	goto	u2812
  2691  06D8  07B6               	addwf	___flmul@prod+2,f
  2692  06D9                     u2812:
  2693  06D9  082B               	movf	??___flmul+3,w
  2694  06DA  1103               	clrz
  2695  06DB  1803               	skipnc
  2696  06DC  3E01               	addlw	1
  2697  06DD  1903               	skipnz
  2698  06DE  2EE0               	goto	u2813
  2699  06DF  07B7               	addwf	___flmul@prod+3,f
  2700  06E0                     u2813:
  2701  06E0                     l2143:
  2702  06E0  082E               	movf	___flmul@grs,w
  2703  06E1  00A8               	movwf	??___flmul
  2704  06E2  082F               	movf	___flmul@grs+1,w
  2705  06E3  00A9               	movwf	??___flmul+1
  2706  06E4  0830               	movf	___flmul@grs+2,w
  2707  06E5  00AA               	movwf	??___flmul+2
  2708  06E6  0831               	movf	___flmul@grs+3,w
  2709  06E7  00AB               	movwf	??___flmul+3
  2710  06E8  3018               	movlw	24
  2711  06E9                     u2825:
  2712  06E9  1003               	clrc
  2713  06EA  0CAB               	rrf	??___flmul+3,f
  2714  06EB  0CAA               	rrf	??___flmul+2,f
  2715  06EC  0CA9               	rrf	??___flmul+1,f
  2716  06ED  0CA8               	rrf	??___flmul,f
  2717  06EE                     u2820:
  2718  06EE  3EFF               	addlw	-1
  2719  06EF  1D03               	skipz
  2720  06F0  2EE9               	goto	u2825
  2721  06F1  0828               	movf	??___flmul,w
  2722  06F2  07B4               	addwf	___flmul@prod,f
  2723  06F3  0829               	movf	??___flmul+1,w
  2724  06F4  1103               	clrz
  2725  06F5  1803               	skipnc
  2726  06F6  3E01               	addlw	1
  2727  06F7  1903               	skipnz
  2728  06F8  2EFA               	goto	u2831
  2729  06F9  07B5               	addwf	___flmul@prod+1,f
  2730  06FA                     u2831:
  2731  06FA  082A               	movf	??___flmul+2,w
  2732  06FB  1103               	clrz
  2733  06FC  1803               	skipnc
  2734  06FD  3E01               	addlw	1
  2735  06FE  1903               	skipnz
  2736  06FF  2F01               	goto	u2832
  2737  0700  07B6               	addwf	___flmul@prod+2,f
  2738  0701                     u2832:
  2739  0701  082B               	movf	??___flmul+3,w
  2740  0702  1103               	clrz
  2741  0703  1803               	skipnc
  2742  0704  3E01               	addlw	1
  2743  0705  1903               	skipnz
  2744  0706  2F08               	goto	u2833
  2745  0707  07B7               	addwf	___flmul@prod+3,f
  2746  0708                     u2833:
  2747  0708                     l2145:
  2748  0708  3008               	movlw	8
  2749  0709  00A8               	movwf	??___flmul
  2750  070A                     u2845:
  2751  070A  1003               	clrc
  2752  070B  0DAE               	rlf	___flmul@grs,f
  2753  070C  0DAF               	rlf	___flmul@grs+1,f
  2754  070D  0DB0               	rlf	___flmul@grs+2,f
  2755  070E  0DB1               	rlf	___flmul@grs+3,f
  2756  070F  0BA8               	decfsz	??___flmul,f
  2757  0710  2F0A               	goto	u2845
  2758  0711                     l2147:
  2759  0711  0833               	movf	___flmul@bexp,w
  2760  0712  0732               	addwf	___flmul@aexp,w
  2761  0713  00A8               	movwf	??___flmul
  2762  0714  01A9               	clrf	??___flmul+1
  2763  0715  0DA9               	rlf	??___flmul+1,f
  2764  0716  0828               	movf	??___flmul,w
  2765  0717  3E82               	addlw	130
  2766  0718  00B8               	movwf	___flmul@temp
  2767  0719  0829               	movf	??___flmul+1,w
  2768  071A  1803               	skipnc
  2769  071B  3E01               	addlw	1
  2770  071C  3EFF               	addlw	255
  2771  071D  00B9               	movwf	___flmul@temp+1
  2772  071E  2F3C               	goto	l2159
  2773  071F                     l2149:
  2774  071F  3001               	movlw	1
  2775  0720  00A8               	movwf	??___flmul
  2776  0721                     u2855:
  2777  0721  1003               	clrc
  2778  0722  0DB4               	rlf	___flmul@prod,f
  2779  0723  0DB5               	rlf	___flmul@prod+1,f
  2780  0724  0DB6               	rlf	___flmul@prod+2,f
  2781  0725  0DB7               	rlf	___flmul@prod+3,f
  2782  0726  0BA8               	decfsz	??___flmul,f
  2783  0727  2F21               	goto	u2855
  2784  0728                     l2151:
  2785  0728  1FB1               	btfss	___flmul@grs+3,7
  2786  0729  2F2B               	goto	u2861
  2787  072A  2F2C               	goto	u2860
  2788  072B                     u2861:
  2789  072B  2F2D               	goto	l2155
  2790  072C                     u2860:
  2791  072C                     l2153:
  2792  072C  1434               	bsf	___flmul@prod,0
  2793  072D                     l2155:
  2794  072D  3001               	movlw	1
  2795  072E  00A8               	movwf	??___flmul
  2796  072F                     u2875:
  2797  072F  1003               	clrc
  2798  0730  0DAE               	rlf	___flmul@grs,f
  2799  0731  0DAF               	rlf	___flmul@grs+1,f
  2800  0732  0DB0               	rlf	___flmul@grs+2,f
  2801  0733  0DB1               	rlf	___flmul@grs+3,f
  2802  0734  0BA8               	decfsz	??___flmul,f
  2803  0735  2F2F               	goto	u2875
  2804  0736                     l2157:
  2805  0736  30FF               	movlw	255
  2806  0737  07B8               	addwf	___flmul@temp,f
  2807  0738  1803               	skipnc
  2808  0739  0AB9               	incf	___flmul@temp+1,f
  2809  073A  30FF               	movlw	255
  2810  073B  07B9               	addwf	___flmul@temp+1,f
  2811  073C                     l2159:
  2812  073C  1FB6               	btfss	___flmul@prod+2,7
  2813  073D  2F3F               	goto	u2881
  2814  073E  2F40               	goto	u2880
  2815  073F                     u2881:
  2816  073F  2F1F               	goto	l2149
  2817  0740                     u2880:
  2818  0740                     l2161:
  2819  0740  01B2               	clrf	___flmul@aexp
  2820  0741                     l2163:
  2821  0741  1FB1               	btfss	___flmul@grs+3,7
  2822  0742  2F44               	goto	u2891
  2823  0743  2F45               	goto	u2890
  2824  0744                     u2891:
  2825  0744  2F61               	goto	l2171
  2826  0745                     u2890:
  2827  0745                     l2165:
  2828  0745  30FF               	movlw	255
  2829  0746  052E               	andwf	___flmul@grs,w
  2830  0747  00A8               	movwf	??___flmul
  2831  0748  30FF               	movlw	255
  2832  0749  052F               	andwf	___flmul@grs+1,w
  2833  074A  00A9               	movwf	??___flmul+1
  2834  074B  30FF               	movlw	255
  2835  074C  0530               	andwf	___flmul@grs+2,w
  2836  074D  00AA               	movwf	??___flmul+2
  2837  074E  307F               	movlw	127
  2838  074F  0531               	andwf	___flmul@grs+3,w
  2839  0750  00AB               	movwf	??___flmul+3
  2840  0751  082B               	movf	??___flmul+3,w
  2841  0752  042A               	iorwf	??___flmul+2,w
  2842  0753  0429               	iorwf	??___flmul+1,w
  2843  0754  0428               	iorwf	??___flmul,w
  2844  0755  1903               	skipnz
  2845  0756  2F58               	goto	u2901
  2846  0757  2F59               	goto	u2900
  2847  0758                     u2901:
  2848  0758  2F5C               	goto	l670
  2849  0759                     u2900:
  2850  0759                     l2167:
  2851  0759  01B2               	clrf	___flmul@aexp
  2852  075A  0AB2               	incf	___flmul@aexp,f
  2853  075B  2F61               	goto	l2171
  2854  075C                     l670:
  2855  075C  1C34               	btfss	___flmul@prod,0
  2856  075D  2F5F               	goto	u2911
  2857  075E  2F60               	goto	u2910
  2858  075F                     u2911:
  2859  075F  2F61               	goto	l2171
  2860  0760                     u2910:
  2861  0760  2F59               	goto	l2167
  2862  0761                     l2171:
  2863  0761  0832               	movf	___flmul@aexp,w
  2864  0762  1903               	btfsc	3,2
  2865  0763  2F65               	goto	u2921
  2866  0764  2F66               	goto	u2920
  2867  0765                     u2921:
  2868  0765  2F97               	goto	l2181
  2869  0766                     u2920:
  2870  0766                     l2173:
  2871  0766  3001               	movlw	1
  2872  0767  07B4               	addwf	___flmul@prod,f
  2873  0768  3000               	movlw	0
  2874  0769  1803               	skipnc
  2875  076A  3001               	movlw	1
  2876  076B  07B5               	addwf	___flmul@prod+1,f
  2877  076C  3000               	movlw	0
  2878  076D  1803               	skipnc
  2879  076E  3001               	movlw	1
  2880  076F  07B6               	addwf	___flmul@prod+2,f
  2881  0770  3000               	movlw	0
  2882  0771  1803               	skipnc
  2883  0772  3001               	movlw	1
  2884  0773  07B7               	addwf	___flmul@prod+3,f
  2885  0774                     l2175:
  2886  0774  1C37               	btfss	___flmul@prod+3,0
  2887  0775  2F77               	goto	u2931
  2888  0776  2F78               	goto	u2930
  2889  0777                     u2931:
  2890  0777  2F97               	goto	l2181
  2891  0778                     u2930:
  2892  0778                     l2177:
  2893  0778  0834               	movf	___flmul@prod,w
  2894  0779  00A8               	movwf	??___flmul
  2895  077A  0835               	movf	___flmul@prod+1,w
  2896  077B  00A9               	movwf	??___flmul+1
  2897  077C  0836               	movf	___flmul@prod+2,w
  2898  077D  00AA               	movwf	??___flmul+2
  2899  077E  0837               	movf	___flmul@prod+3,w
  2900  077F  00AB               	movwf	??___flmul+3
  2901  0780  3001               	movlw	1
  2902  0781  00AC               	movwf	??___flmul+4
  2903  0782                     u2945:
  2904  0782  0D2B               	rlf	??___flmul+3,w
  2905  0783  0CAB               	rrf	??___flmul+3,f
  2906  0784  0CAA               	rrf	??___flmul+2,f
  2907  0785  0CA9               	rrf	??___flmul+1,f
  2908  0786  0CA8               	rrf	??___flmul,f
  2909  0787                     u2940:
  2910  0787  0BAC               	decfsz	??___flmul+4,f
  2911  0788  2F82               	goto	u2945
  2912  0789  082B               	movf	??___flmul+3,w
  2913  078A  00B7               	movwf	___flmul@prod+3
  2914  078B  082A               	movf	??___flmul+2,w
  2915  078C  00B6               	movwf	___flmul@prod+2
  2916  078D  0829               	movf	??___flmul+1,w
  2917  078E  00B5               	movwf	___flmul@prod+1
  2918  078F  0828               	movf	??___flmul,w
  2919  0790  00B4               	movwf	___flmul@prod
  2920  0791                     l2179:
  2921  0791  3001               	movlw	1
  2922  0792  07B8               	addwf	___flmul@temp,f
  2923  0793  1803               	skipnc
  2924  0794  0AB9               	incf	___flmul@temp+1,f
  2925  0795  3000               	movlw	0
  2926  0796  07B9               	addwf	___flmul@temp+1,f
  2927  0797                     l2181:
  2928  0797  0839               	movf	___flmul@temp+1,w
  2929  0798  3A80               	xorlw	128
  2930  0799  00FF               	movwf	btemp+1
  2931  079A  3080               	movlw	128
  2932  079B  027F               	subwf	btemp+1,w
  2933  079C  1D03               	skipz
  2934  079D  2FA0               	goto	u2955
  2935  079E  30FF               	movlw	255
  2936  079F  0238               	subwf	___flmul@temp,w
  2937  07A0                     u2955:
  2938  07A0  1C03               	skipc
  2939  07A1  2FA3               	goto	u2951
  2940  07A2  2FA4               	goto	u2950
  2941  07A3                     u2951:
  2942  07A3  2FAF               	goto	l2185
  2943  07A4                     u2950:
  2944  07A4                     l2183:
  2945  07A4  307F               	movlw	127
  2946  07A5  1283               	bcf	3,5	;RP0=0, select bank0
  2947  07A6  1303               	bcf	3,6	;RP1=0, select bank0
  2948  07A7  00B7               	movwf	___flmul@prod+3
  2949  07A8  3080               	movlw	128
  2950  07A9  00B6               	movwf	___flmul@prod+2
  2951  07AA  3000               	movlw	0
  2952  07AB  00B5               	movwf	___flmul@prod+1
  2953  07AC  3000               	movlw	0
  2954  07AD  00B4               	movwf	___flmul@prod
  2955  07AE  2FE4               	goto	l676
  2956  07AF                     l2185:
  2957  07AF  1283               	bcf	3,5	;RP0=0, select bank0
  2958  07B0  1303               	bcf	3,6	;RP1=0, select bank0
  2959  07B1  0839               	movf	___flmul@temp+1,w
  2960  07B2  3A80               	xorlw	128
  2961  07B3  00FF               	movwf	btemp+1
  2962  07B4  3080               	movlw	128
  2963  07B5  027F               	subwf	btemp+1,w
  2964  07B6  1D03               	skipz
  2965  07B7  2FBA               	goto	u2965
  2966  07B8  3001               	movlw	1
  2967  07B9  0238               	subwf	___flmul@temp,w
  2968  07BA                     u2965:
  2969  07BA  1803               	skipnc
  2970  07BB  2FBD               	goto	u2961
  2971  07BC  2FBE               	goto	u2960
  2972  07BD                     u2961:
  2973  07BD  2FCA               	goto	l2191
  2974  07BE                     u2960:
  2975  07BE                     l2187:
  2976  07BE  3000               	movlw	0
  2977  07BF  1283               	bcf	3,5	;RP0=0, select bank0
  2978  07C0  1303               	bcf	3,6	;RP1=0, select bank0
  2979  07C1  00B7               	movwf	___flmul@prod+3
  2980  07C2  3000               	movlw	0
  2981  07C3  00B6               	movwf	___flmul@prod+2
  2982  07C4  3000               	movlw	0
  2983  07C5  00B5               	movwf	___flmul@prod+1
  2984  07C6  3000               	movlw	0
  2985  07C7  00B4               	movwf	___flmul@prod
  2986  07C8                     l2189:
  2987  07C8  01AD               	clrf	___flmul@sign
  2988  07C9  2FE4               	goto	l676
  2989  07CA                     l2191:
  2990  07CA  1283               	bcf	3,5	;RP0=0, select bank0
  2991  07CB  1303               	bcf	3,6	;RP1=0, select bank0
  2992  07CC  0838               	movf	___flmul@temp,w
  2993  07CD  00A8               	movwf	??___flmul
  2994  07CE  0828               	movf	??___flmul,w
  2995  07CF  00B3               	movwf	___flmul@bexp
  2996  07D0  30FF               	movlw	255
  2997  07D1  05B4               	andwf	___flmul@prod,f
  2998  07D2  30FF               	movlw	255
  2999  07D3  05B5               	andwf	___flmul@prod+1,f
  3000  07D4  307F               	movlw	127
  3001  07D5  05B6               	andwf	___flmul@prod+2,f
  3002  07D6  3000               	movlw	0
  3003  07D7  05B7               	andwf	___flmul@prod+3,f
  3004  07D8                     l2193:
  3005  07D8  1C33               	btfss	___flmul@bexp,0
  3006  07D9  2FDB               	goto	u2971
  3007  07DA  2FDC               	goto	u2970
  3008  07DB                     u2971:
  3009  07DB  2FDD               	goto	l2197
  3010  07DC                     u2970:
  3011  07DC                     l2195:
  3012  07DC  17B6               	bsf	___flmul@prod+2,7
  3013  07DD                     l2197:
  3014  07DD  0833               	movf	___flmul@bexp,w
  3015  07DE  00A8               	movwf	??___flmul
  3016  07DF  1003               	clrc
  3017  07E0  0C28               	rrf	??___flmul,w
  3018  07E1  00A9               	movwf	??___flmul+1
  3019  07E2  0829               	movf	??___flmul+1,w
  3020  07E3  00B7               	movwf	___flmul@prod+3
  3021  07E4                     l676:
  3022  07E4  082D               	movf	___flmul@sign,w
  3023  07E5  00A8               	movwf	??___flmul
  3024  07E6  0828               	movf	??___flmul,w
  3025  07E7  04B7               	iorwf	___flmul@prod+3,f
  3026  07E8                     l2199:
  3027  07E8  0837               	movf	___flmul@prod+3,w
  3028  07E9  00A3               	movwf	?___flmul+3
  3029  07EA  0836               	movf	___flmul@prod+2,w
  3030  07EB  00A2               	movwf	?___flmul+2
  3031  07EC  0835               	movf	___flmul@prod+1,w
  3032  07ED  00A1               	movwf	?___flmul+1
  3033  07EE  0834               	movf	___flmul@prod,w
  3034  07EF  00A0               	movwf	?___flmul
  3035  07F0                     l664:
  3036  07F0  0008               	return
  3037  07F1                     __end_of___flmul:
  3038                           
  3039                           	psect	text7
  3040  0004                     __ptext7:	
  3041 ;; *************** function __Umul8_16 *****************
  3042 ;; Defined at:
  3043 ;;		line 4 in file "C:\Program Files\Microchip\xc8\v2.31\pic\sources\c90\common\Umul8_16.c"
  3044 ;; Parameters:    Size  Location     Type
  3045 ;;  multiplier      1    wreg     unsigned char 
  3046 ;;  multiplicand    1    0[COMMON] unsigned char 
  3047 ;; Auto vars:     Size  Location     Type
  3048 ;;  multiplier      1    8[COMMON] unsigned char 
  3049 ;;  word_mpld       2    6[COMMON] unsigned int 
  3050 ;;  product         2    4[COMMON] unsigned int 
  3051 ;; Return value:  Size  Location     Type
  3052 ;;                  2    0[COMMON] unsigned int 
  3053 ;; Registers used:
  3054 ;;		wreg, status,2, status,0
  3055 ;; Tracked objects:
  3056 ;;		On entry : 0/0
  3057 ;;		On exit  : 0/0
  3058 ;;		Unchanged: 0/0
  3059 ;; Data sizes:     COMMON   BANK0   BANK1   BANK3   BANK2
  3060 ;;      Params:         2       0       0       0       0
  3061 ;;      Locals:         5       0       0       0       0
  3062 ;;      Temps:          2       0       0       0       0
  3063 ;;      Totals:         9       0       0       0       0
  3064 ;;Total ram usage:        9 bytes
  3065 ;; Hardware stack levels used:    1
  3066 ;; This function calls:
  3067 ;;		Nothing
  3068 ;; This function is called by:
  3069 ;;		___flmul
  3070 ;; This function uses a non-reentrant model
  3071 ;;
  3072                           
  3073                           
  3074                           ;psect for function __Umul8_16
  3075  0004                     __Umul8_16:
  3076                           
  3077                           ;incstack = 0
  3078                           ; Regs used in __Umul8_16: [wreg+status,2+status,0]
  3079                           ;__Umul8_16@multiplier stored from wreg
  3080  0004  00F8               	movwf	__Umul8_16@multiplier
  3081  0005                     l1619:
  3082  0005  01F4               	clrf	__Umul8_16@product
  3083  0006  01F5               	clrf	__Umul8_16@product+1
  3084  0007                     l1621:
  3085  0007  0870               	movf	__Umul8_16@multiplicand,w
  3086  0008  00F2               	movwf	??__Umul8_16
  3087  0009  01F3               	clrf	??__Umul8_16+1
  3088  000A  0872               	movf	??__Umul8_16,w
  3089  000B  00F6               	movwf	__Umul8_16@word_mpld
  3090  000C  0873               	movf	??__Umul8_16+1,w
  3091  000D  00F7               	movwf	__Umul8_16@word_mpld+1
  3092  000E                     l1623:
  3093  000E  1C78               	btfss	__Umul8_16@multiplier,0
  3094  000F  2811               	goto	u1721
  3095  0010  2812               	goto	u1720
  3096  0011                     u1721:
  3097  0011  2818               	goto	l683
  3098  0012                     u1720:
  3099  0012                     l1625:
  3100  0012  0876               	movf	__Umul8_16@word_mpld,w
  3101  0013  07F4               	addwf	__Umul8_16@product,f
  3102  0014  1803               	skipnc
  3103  0015  0AF5               	incf	__Umul8_16@product+1,f
  3104  0016  0877               	movf	__Umul8_16@word_mpld+1,w
  3105  0017  07F5               	addwf	__Umul8_16@product+1,f
  3106  0018                     l683:
  3107  0018  3001               	movlw	1
  3108  0019                     u1735:
  3109  0019  1003               	clrc
  3110  001A  0DF6               	rlf	__Umul8_16@word_mpld,f
  3111  001B  0DF7               	rlf	__Umul8_16@word_mpld+1,f
  3112  001C  3EFF               	addlw	-1
  3113  001D  1D03               	skipz
  3114  001E  2819               	goto	u1735
  3115  001F  1003               	clrc
  3116  0020  0CF8               	rrf	__Umul8_16@multiplier,f
  3117  0021                     l1627:
  3118  0021  0878               	movf	__Umul8_16@multiplier,w
  3119  0022  1D03               	btfss	3,2
  3120  0023  2825               	goto	u1741
  3121  0024  2826               	goto	u1740
  3122  0025                     u1741:
  3123  0025  280E               	goto	l1623
  3124  0026                     u1740:
  3125  0026                     l1629:
  3126  0026  0875               	movf	__Umul8_16@product+1,w
  3127  0027  00F1               	movwf	?__Umul8_16+1
  3128  0028  0874               	movf	__Umul8_16@product,w
  3129  0029  00F0               	movwf	?__Umul8_16
  3130  002A                     l685:
  3131  002A  0008               	return
  3132  002B                     __end_of__Umul8_16:
  3133                           
  3134                           	psect	text8
  3135  002B                     __ptext8:	
  3136 ;; *************** function ___fldiv *****************
  3137 ;; Defined at:
  3138 ;;		line 8 in file "C:\Program Files\Microchip\xc8\v2.31\pic\sources\c90\common\sprcdiv.c"
  3139 ;; Parameters:    Size  Location     Type
  3140 ;;  a               4   26[BANK0 ] unsigned int 
  3141 ;;  b               4   30[BANK0 ] unsigned int 
  3142 ;; Auto vars:     Size  Location     Type
  3143 ;;  grs             4   46[BANK0 ] unsigned long 
  3144 ;;  rem             4   39[BANK0 ] unsigned long 
  3145 ;;  new_exp         2   44[BANK0 ] int 
  3146 ;;  aexp            1   51[BANK0 ] unsigned char 
  3147 ;;  bexp            1   50[BANK0 ] unsigned char 
  3148 ;;  sign            1   43[BANK0 ] unsigned char 
  3149 ;; Return value:  Size  Location     Type
  3150 ;;                  4   26[BANK0 ] unsigned char 
  3151 ;; Registers used:
  3152 ;;		wreg, status,2, status,0, btemp+1
  3153 ;; Tracked objects:
  3154 ;;		On entry : 0/0
  3155 ;;		On exit  : 0/0
  3156 ;;		Unchanged: 0/0
  3157 ;; Data sizes:     COMMON   BANK0   BANK1   BANK3   BANK2
  3158 ;;      Params:         0       8       0       0       0
  3159 ;;      Locals:         0      13       0       0       0
  3160 ;;      Temps:          0       5       0       0       0
  3161 ;;      Totals:         0      26       0       0       0
  3162 ;;Total ram usage:       26 bytes
  3163 ;; Hardware stack levels used:    1
  3164 ;; This function calls:
  3165 ;;		Nothing
  3166 ;; This function is called by:
  3167 ;;		_main
  3168 ;; This function uses a non-reentrant model
  3169 ;;
  3170                           
  3171                           
  3172                           ;psect for function ___fldiv
  3173  002B                     ___fldiv:
  3174  002B                     l1921:	
  3175                           ;incstack = 0
  3176                           ; Regs used in ___fldiv: [wreg+status,2+status,0+btemp+1]
  3177                           
  3178  002B  1283               	bcf	3,5	;RP0=0, select bank0
  3179  002C  1303               	bcf	3,6	;RP1=0, select bank0
  3180  002D  0841               	movf	___fldiv@b+3,w
  3181  002E  3980               	andlw	128
  3182  002F  00C2               	movwf	??___fldiv
  3183  0030  0842               	movf	??___fldiv,w
  3184  0031  00CB               	movwf	___fldiv@sign
  3185  0032                     l1923:
  3186  0032  0841               	movf	___fldiv@b+3,w
  3187  0033  00C2               	movwf	??___fldiv
  3188  0034  0742               	addwf	??___fldiv,w
  3189  0035  00C3               	movwf	??___fldiv+1
  3190  0036  0843               	movf	??___fldiv+1,w
  3191  0037  00D2               	movwf	___fldiv@bexp
  3192  0038                     l1925:
  3193  0038  1FC0               	btfss	___fldiv@b+2,7
  3194  0039  283B               	goto	u2321
  3195  003A  283C               	goto	u2320
  3196  003B                     u2321:
  3197  003B  283D               	goto	l1929
  3198  003C                     u2320:
  3199  003C                     l1927:
  3200  003C  1452               	bsf	___fldiv@bexp,0
  3201  003D                     l1929:
  3202  003D  0852               	movf	___fldiv@bexp,w
  3203  003E  1903               	btfsc	3,2
  3204  003F  2841               	goto	u2331
  3205  0040  2842               	goto	u2330
  3206  0041                     u2331:
  3207  0041  2852               	goto	l1939
  3208  0042                     u2330:
  3209  0042                     l1931:
  3210  0042  0A52               	incf	___fldiv@bexp,w
  3211  0043  1D03               	btfss	3,2
  3212  0044  2846               	goto	u2341
  3213  0045  2847               	goto	u2340
  3214  0046                     u2341:
  3215  0046  284F               	goto	l1935
  3216  0047                     u2340:
  3217  0047                     l1933:
  3218  0047  3000               	movlw	0
  3219  0048  00C1               	movwf	___fldiv@b+3
  3220  0049  3000               	movlw	0
  3221  004A  00C0               	movwf	___fldiv@b+2
  3222  004B  3000               	movlw	0
  3223  004C  00BF               	movwf	___fldiv@b+1
  3224  004D  3000               	movlw	0
  3225  004E  00BE               	movwf	___fldiv@b
  3226  004F                     l1935:
  3227  004F  17C0               	bsf	___fldiv@b+2,7
  3228  0050                     l1937:
  3229  0050  01C1               	clrf	___fldiv@b+3
  3230  0051  285A               	goto	l1941
  3231  0052                     l1939:
  3232  0052  3000               	movlw	0
  3233  0053  00C1               	movwf	___fldiv@b+3
  3234  0054  3000               	movlw	0
  3235  0055  00C0               	movwf	___fldiv@b+2
  3236  0056  3000               	movlw	0
  3237  0057  00BF               	movwf	___fldiv@b+1
  3238  0058  3000               	movlw	0
  3239  0059  00BE               	movwf	___fldiv@b
  3240  005A                     l1941:
  3241  005A  083D               	movf	___fldiv@a+3,w
  3242  005B  3980               	andlw	128
  3243  005C  00C2               	movwf	??___fldiv
  3244  005D  0842               	movf	??___fldiv,w
  3245  005E  06CB               	xorwf	___fldiv@sign,f
  3246  005F                     l1943:
  3247  005F  083D               	movf	___fldiv@a+3,w
  3248  0060  00C2               	movwf	??___fldiv
  3249  0061  0742               	addwf	??___fldiv,w
  3250  0062  00C3               	movwf	??___fldiv+1
  3251  0063  0843               	movf	??___fldiv+1,w
  3252  0064  00D3               	movwf	___fldiv@aexp
  3253  0065                     l1945:
  3254  0065  1FBC               	btfss	___fldiv@a+2,7
  3255  0066  2868               	goto	u2351
  3256  0067  2869               	goto	u2350
  3257  0068                     u2351:
  3258  0068  286A               	goto	l1949
  3259  0069                     u2350:
  3260  0069                     l1947:
  3261  0069  1453               	bsf	___fldiv@aexp,0
  3262  006A                     l1949:
  3263  006A  0853               	movf	___fldiv@aexp,w
  3264  006B  1903               	btfsc	3,2
  3265  006C  286E               	goto	u2361
  3266  006D  286F               	goto	u2360
  3267  006E                     u2361:
  3268  006E  287F               	goto	l1959
  3269  006F                     u2360:
  3270  006F                     l1951:
  3271  006F  0A53               	incf	___fldiv@aexp,w
  3272  0070  1D03               	btfss	3,2
  3273  0071  2873               	goto	u2371
  3274  0072  2874               	goto	u2370
  3275  0073                     u2371:
  3276  0073  287C               	goto	l1955
  3277  0074                     u2370:
  3278  0074                     l1953:
  3279  0074  3000               	movlw	0
  3280  0075  00BD               	movwf	___fldiv@a+3
  3281  0076  3000               	movlw	0
  3282  0077  00BC               	movwf	___fldiv@a+2
  3283  0078  3000               	movlw	0
  3284  0079  00BB               	movwf	___fldiv@a+1
  3285  007A  3000               	movlw	0
  3286  007B  00BA               	movwf	___fldiv@a
  3287  007C                     l1955:
  3288  007C  17BC               	bsf	___fldiv@a+2,7
  3289  007D                     l1957:
  3290  007D  01BD               	clrf	___fldiv@a+3
  3291  007E  2887               	goto	l624
  3292  007F                     l1959:
  3293  007F  3000               	movlw	0
  3294  0080  00BD               	movwf	___fldiv@a+3
  3295  0081  3000               	movlw	0
  3296  0082  00BC               	movwf	___fldiv@a+2
  3297  0083  3000               	movlw	0
  3298  0084  00BB               	movwf	___fldiv@a+1
  3299  0085  3000               	movlw	0
  3300  0086  00BA               	movwf	___fldiv@a
  3301  0087                     l624:
  3302  0087  083D               	movf	___fldiv@a+3,w
  3303  0088  043C               	iorwf	___fldiv@a+2,w
  3304  0089  043B               	iorwf	___fldiv@a+1,w
  3305  008A  043A               	iorwf	___fldiv@a,w
  3306  008B  1D03               	skipz
  3307  008C  288E               	goto	u2381
  3308  008D  288F               	goto	u2380
  3309  008E                     u2381:
  3310  008E  28A8               	goto	l1969
  3311  008F                     u2380:
  3312  008F                     l1961:
  3313  008F  3000               	movlw	0
  3314  0090  00C1               	movwf	___fldiv@b+3
  3315  0091  3000               	movlw	0
  3316  0092  00C0               	movwf	___fldiv@b+2
  3317  0093  3000               	movlw	0
  3318  0094  00BF               	movwf	___fldiv@b+1
  3319  0095  3000               	movlw	0
  3320  0096  00BE               	movwf	___fldiv@b
  3321  0097  3080               	movlw	128
  3322  0098  04C0               	iorwf	___fldiv@b+2,f
  3323  0099  307F               	movlw	127
  3324  009A  04C1               	iorwf	___fldiv@b+3,f
  3325  009B                     l1963:
  3326  009B  084B               	movf	___fldiv@sign,w
  3327  009C  00C2               	movwf	??___fldiv
  3328  009D  0842               	movf	??___fldiv,w
  3329  009E  04C1               	iorwf	___fldiv@b+3,f
  3330  009F                     l1965:
  3331  009F  0841               	movf	___fldiv@b+3,w
  3332  00A0  00BD               	movwf	?___fldiv+3
  3333  00A1  0840               	movf	___fldiv@b+2,w
  3334  00A2  00BC               	movwf	?___fldiv+2
  3335  00A3  083F               	movf	___fldiv@b+1,w
  3336  00A4  00BB               	movwf	?___fldiv+1
  3337  00A5  083E               	movf	___fldiv@b,w
  3338  00A6  00BA               	movwf	?___fldiv
  3339  00A7  2A07               	goto	l626
  3340  00A8                     l1969:
  3341  00A8  0852               	movf	___fldiv@bexp,w
  3342  00A9  1D03               	btfss	3,2
  3343  00AA  28AC               	goto	u2391
  3344  00AB  28AD               	goto	u2390
  3345  00AC                     u2391:
  3346  00AC  28B6               	goto	l1975
  3347  00AD                     u2390:
  3348  00AD                     l1971:
  3349  00AD  3000               	movlw	0
  3350  00AE  00BD               	movwf	?___fldiv+3
  3351  00AF  3000               	movlw	0
  3352  00B0  00BC               	movwf	?___fldiv+2
  3353  00B1  3000               	movlw	0
  3354  00B2  00BB               	movwf	?___fldiv+1
  3355  00B3  3000               	movlw	0
  3356  00B4  00BA               	movwf	?___fldiv
  3357  00B5  2A07               	goto	l626
  3358  00B6                     l1975:
  3359  00B6  0852               	movf	___fldiv@bexp,w
  3360  00B7  00C2               	movwf	??___fldiv
  3361  00B8  01C3               	clrf	??___fldiv+1
  3362  00B9  0843               	movf	??___fldiv+1,w
  3363  00BA  00C5               	movwf	??___fldiv+3
  3364  00BB  0853               	movf	___fldiv@aexp,w
  3365  00BC  0242               	subwf	??___fldiv,w
  3366  00BD  00C4               	movwf	??___fldiv+2
  3367  00BE  1C03               	skipc
  3368  00BF  03C5               	decf	??___fldiv+3,f
  3369  00C0  0844               	movf	??___fldiv+2,w
  3370  00C1  3E7F               	addlw	127
  3371  00C2  00CC               	movwf	___fldiv@new_exp
  3372  00C3  0845               	movf	??___fldiv+3,w
  3373  00C4  1803               	skipnc
  3374  00C5  3E01               	addlw	1
  3375  00C6  3E00               	addlw	0
  3376  00C7  00CD               	movwf	___fldiv@new_exp+1
  3377  00C8                     l1977:
  3378  00C8  0841               	movf	___fldiv@b+3,w
  3379  00C9  00CA               	movwf	___fldiv@rem+3
  3380  00CA  0840               	movf	___fldiv@b+2,w
  3381  00CB  00C9               	movwf	___fldiv@rem+2
  3382  00CC  083F               	movf	___fldiv@b+1,w
  3383  00CD  00C8               	movwf	___fldiv@rem+1
  3384  00CE  083E               	movf	___fldiv@b,w
  3385  00CF  00C7               	movwf	___fldiv@rem
  3386  00D0                     l1979:
  3387  00D0  3000               	movlw	0
  3388  00D1  00C1               	movwf	___fldiv@b+3
  3389  00D2  3000               	movlw	0
  3390  00D3  00C0               	movwf	___fldiv@b+2
  3391  00D4  3000               	movlw	0
  3392  00D5  00BF               	movwf	___fldiv@b+1
  3393  00D6  3000               	movlw	0
  3394  00D7  00BE               	movwf	___fldiv@b
  3395  00D8                     l1981:
  3396  00D8  3000               	movlw	0
  3397  00D9  00D1               	movwf	___fldiv@grs+3
  3398  00DA  3000               	movlw	0
  3399  00DB  00D0               	movwf	___fldiv@grs+2
  3400  00DC  3000               	movlw	0
  3401  00DD  00CF               	movwf	___fldiv@grs+1
  3402  00DE  3000               	movlw	0
  3403  00DF  00CE               	movwf	___fldiv@grs
  3404  00E0                     l1983:
  3405  00E0  01D3               	clrf	___fldiv@aexp
  3406  00E1  292C               	goto	l2003
  3407  00E2                     l1985:
  3408  00E2  0853               	movf	___fldiv@aexp,w
  3409  00E3  1903               	btfsc	3,2
  3410  00E4  28E6               	goto	u2401
  3411  00E5  28E7               	goto	u2400
  3412  00E6                     u2401:
  3413  00E6  2907               	goto	l1995
  3414  00E7                     u2400:
  3415  00E7                     l1987:
  3416  00E7  3001               	movlw	1
  3417  00E8  00C2               	movwf	??___fldiv
  3418  00E9                     u2415:
  3419  00E9  1003               	clrc
  3420  00EA  0DC7               	rlf	___fldiv@rem,f
  3421  00EB  0DC8               	rlf	___fldiv@rem+1,f
  3422  00EC  0DC9               	rlf	___fldiv@rem+2,f
  3423  00ED  0DCA               	rlf	___fldiv@rem+3,f
  3424  00EE  0BC2               	decfsz	??___fldiv,f
  3425  00EF  28E9               	goto	u2415
  3426  00F0  3001               	movlw	1
  3427  00F1  00C2               	movwf	??___fldiv
  3428  00F2                     u2425:
  3429  00F2  1003               	clrc
  3430  00F3  0DBE               	rlf	___fldiv@b,f
  3431  00F4  0DBF               	rlf	___fldiv@b+1,f
  3432  00F5  0DC0               	rlf	___fldiv@b+2,f
  3433  00F6  0DC1               	rlf	___fldiv@b+3,f
  3434  00F7  0BC2               	decfsz	??___fldiv,f
  3435  00F8  28F2               	goto	u2425
  3436  00F9                     l1989:
  3437  00F9  1FD1               	btfss	___fldiv@grs+3,7
  3438  00FA  28FC               	goto	u2431
  3439  00FB  28FD               	goto	u2430
  3440  00FC                     u2431:
  3441  00FC  28FE               	goto	l1993
  3442  00FD                     u2430:
  3443  00FD                     l1991:
  3444  00FD  143E               	bsf	___fldiv@b,0
  3445  00FE                     l1993:
  3446  00FE  3001               	movlw	1
  3447  00FF  00C2               	movwf	??___fldiv
  3448  0100                     u2445:
  3449  0100  1003               	clrc
  3450  0101  0DCE               	rlf	___fldiv@grs,f
  3451  0102  0DCF               	rlf	___fldiv@grs+1,f
  3452  0103  0DD0               	rlf	___fldiv@grs+2,f
  3453  0104  0DD1               	rlf	___fldiv@grs+3,f
  3454  0105  0BC2               	decfsz	??___fldiv,f
  3455  0106  2900               	goto	u2445
  3456  0107                     l1995:
  3457  0107  083D               	movf	___fldiv@a+3,w
  3458  0108  024A               	subwf	___fldiv@rem+3,w
  3459  0109  1D03               	skipz
  3460  010A  2915               	goto	u2455
  3461  010B  083C               	movf	___fldiv@a+2,w
  3462  010C  0249               	subwf	___fldiv@rem+2,w
  3463  010D  1D03               	skipz
  3464  010E  2915               	goto	u2455
  3465  010F  083B               	movf	___fldiv@a+1,w
  3466  0110  0248               	subwf	___fldiv@rem+1,w
  3467  0111  1D03               	skipz
  3468  0112  2915               	goto	u2455
  3469  0113  083A               	movf	___fldiv@a,w
  3470  0114  0247               	subwf	___fldiv@rem,w
  3471  0115                     u2455:
  3472  0115  1C03               	skipc
  3473  0116  2918               	goto	u2451
  3474  0117  2919               	goto	u2450
  3475  0118                     u2451:
  3476  0118  2928               	goto	l2001
  3477  0119                     u2450:
  3478  0119                     l1997:
  3479  0119  1751               	bsf	___fldiv@grs+3,6
  3480  011A                     l1999:
  3481  011A  083A               	movf	___fldiv@a,w
  3482  011B  02C7               	subwf	___fldiv@rem,f
  3483  011C  083B               	movf	___fldiv@a+1,w
  3484  011D  1C03               	skipc
  3485  011E  0F3B               	incfsz	___fldiv@a+1,w
  3486  011F  02C8               	subwf	___fldiv@rem+1,f
  3487  0120  083C               	movf	___fldiv@a+2,w
  3488  0121  1C03               	skipc
  3489  0122  0F3C               	incfsz	___fldiv@a+2,w
  3490  0123  02C9               	subwf	___fldiv@rem+2,f
  3491  0124  083D               	movf	___fldiv@a+3,w
  3492  0125  1C03               	skipc
  3493  0126  0F3D               	incfsz	___fldiv@a+3,w
  3494  0127  02CA               	subwf	___fldiv@rem+3,f
  3495  0128                     l2001:
  3496  0128  3001               	movlw	1
  3497  0129  00C2               	movwf	??___fldiv
  3498  012A  0842               	movf	??___fldiv,w
  3499  012B  07D3               	addwf	___fldiv@aexp,f
  3500  012C                     l2003:
  3501  012C  301A               	movlw	26
  3502  012D  0253               	subwf	___fldiv@aexp,w
  3503  012E  1C03               	skipc
  3504  012F  2931               	goto	u2461
  3505  0130  2932               	goto	u2460
  3506  0131                     u2461:
  3507  0131  28E2               	goto	l1985
  3508  0132                     u2460:
  3509  0132                     l2005:
  3510  0132  084A               	movf	___fldiv@rem+3,w
  3511  0133  0449               	iorwf	___fldiv@rem+2,w
  3512  0134  0448               	iorwf	___fldiv@rem+1,w
  3513  0135  0447               	iorwf	___fldiv@rem,w
  3514  0136  1903               	skipnz
  3515  0137  2939               	goto	u2471
  3516  0138  293A               	goto	u2470
  3517  0139                     u2471:
  3518  0139  2959               	goto	l2019
  3519  013A                     u2470:
  3520  013A                     l2007:
  3521  013A  144E               	bsf	___fldiv@grs,0
  3522  013B  2959               	goto	l2019
  3523  013C                     l2009:
  3524  013C  3001               	movlw	1
  3525  013D  00C2               	movwf	??___fldiv
  3526  013E                     u2485:
  3527  013E  1003               	clrc
  3528  013F  0DBE               	rlf	___fldiv@b,f
  3529  0140  0DBF               	rlf	___fldiv@b+1,f
  3530  0141  0DC0               	rlf	___fldiv@b+2,f
  3531  0142  0DC1               	rlf	___fldiv@b+3,f
  3532  0143  0BC2               	decfsz	??___fldiv,f
  3533  0144  293E               	goto	u2485
  3534  0145                     l2011:
  3535  0145  1FD1               	btfss	___fldiv@grs+3,7
  3536  0146  2948               	goto	u2491
  3537  0147  2949               	goto	u2490
  3538  0148                     u2491:
  3539  0148  294A               	goto	l2015
  3540  0149                     u2490:
  3541  0149                     l2013:
  3542  0149  143E               	bsf	___fldiv@b,0
  3543  014A                     l2015:
  3544  014A  3001               	movlw	1
  3545  014B  00C2               	movwf	??___fldiv
  3546  014C                     u2505:
  3547  014C  1003               	clrc
  3548  014D  0DCE               	rlf	___fldiv@grs,f
  3549  014E  0DCF               	rlf	___fldiv@grs+1,f
  3550  014F  0DD0               	rlf	___fldiv@grs+2,f
  3551  0150  0DD1               	rlf	___fldiv@grs+3,f
  3552  0151  0BC2               	decfsz	??___fldiv,f
  3553  0152  294C               	goto	u2505
  3554  0153                     l2017:
  3555  0153  30FF               	movlw	255
  3556  0154  07CC               	addwf	___fldiv@new_exp,f
  3557  0155  1803               	skipnc
  3558  0156  0ACD               	incf	___fldiv@new_exp+1,f
  3559  0157  30FF               	movlw	255
  3560  0158  07CD               	addwf	___fldiv@new_exp+1,f
  3561  0159                     l2019:
  3562  0159  1FC0               	btfss	___fldiv@b+2,7
  3563  015A  295C               	goto	u2511
  3564  015B  295D               	goto	u2510
  3565  015C                     u2511:
  3566  015C  293C               	goto	l2009
  3567  015D                     u2510:
  3568  015D                     l2021:
  3569  015D  01D3               	clrf	___fldiv@aexp
  3570  015E                     l2023:
  3571  015E  1FD1               	btfss	___fldiv@grs+3,7
  3572  015F  2961               	goto	u2521
  3573  0160  2962               	goto	u2520
  3574  0161                     u2521:
  3575  0161  297E               	goto	l2031
  3576  0162                     u2520:
  3577  0162                     l2025:
  3578  0162  30FF               	movlw	255
  3579  0163  054E               	andwf	___fldiv@grs,w
  3580  0164  00C2               	movwf	??___fldiv
  3581  0165  30FF               	movlw	255
  3582  0166  054F               	andwf	___fldiv@grs+1,w
  3583  0167  00C3               	movwf	??___fldiv+1
  3584  0168  30FF               	movlw	255
  3585  0169  0550               	andwf	___fldiv@grs+2,w
  3586  016A  00C4               	movwf	??___fldiv+2
  3587  016B  307F               	movlw	127
  3588  016C  0551               	andwf	___fldiv@grs+3,w
  3589  016D  00C5               	movwf	??___fldiv+3
  3590  016E  0845               	movf	??___fldiv+3,w
  3591  016F  0444               	iorwf	??___fldiv+2,w
  3592  0170  0443               	iorwf	??___fldiv+1,w
  3593  0171  0442               	iorwf	??___fldiv,w
  3594  0172  1903               	skipnz
  3595  0173  2975               	goto	u2531
  3596  0174  2976               	goto	u2530
  3597  0175                     u2531:
  3598  0175  2979               	goto	l640
  3599  0176                     u2530:
  3600  0176                     l2027:
  3601  0176  01D3               	clrf	___fldiv@aexp
  3602  0177  0AD3               	incf	___fldiv@aexp,f
  3603  0178  297E               	goto	l2031
  3604  0179                     l640:
  3605  0179  1C3E               	btfss	___fldiv@b,0
  3606  017A  297C               	goto	u2541
  3607  017B  297D               	goto	u2540
  3608  017C                     u2541:
  3609  017C  297E               	goto	l2031
  3610  017D                     u2540:
  3611  017D  2976               	goto	l2027
  3612  017E                     l2031:
  3613  017E  0853               	movf	___fldiv@aexp,w
  3614  017F  1903               	btfsc	3,2
  3615  0180  2982               	goto	u2551
  3616  0181  2983               	goto	u2550
  3617  0182                     u2551:
  3618  0182  29B4               	goto	l2041
  3619  0183                     u2550:
  3620  0183                     l2033:
  3621  0183  3001               	movlw	1
  3622  0184  07BE               	addwf	___fldiv@b,f
  3623  0185  3000               	movlw	0
  3624  0186  1803               	skipnc
  3625  0187  3001               	movlw	1
  3626  0188  07BF               	addwf	___fldiv@b+1,f
  3627  0189  3000               	movlw	0
  3628  018A  1803               	skipnc
  3629  018B  3001               	movlw	1
  3630  018C  07C0               	addwf	___fldiv@b+2,f
  3631  018D  3000               	movlw	0
  3632  018E  1803               	skipnc
  3633  018F  3001               	movlw	1
  3634  0190  07C1               	addwf	___fldiv@b+3,f
  3635  0191                     l2035:
  3636  0191  1C41               	btfss	___fldiv@b+3,0
  3637  0192  2994               	goto	u2561
  3638  0193  2995               	goto	u2560
  3639  0194                     u2561:
  3640  0194  29B4               	goto	l2041
  3641  0195                     u2560:
  3642  0195                     l2037:
  3643  0195  083E               	movf	___fldiv@b,w
  3644  0196  00C2               	movwf	??___fldiv
  3645  0197  083F               	movf	___fldiv@b+1,w
  3646  0198  00C3               	movwf	??___fldiv+1
  3647  0199  0840               	movf	___fldiv@b+2,w
  3648  019A  00C4               	movwf	??___fldiv+2
  3649  019B  0841               	movf	___fldiv@b+3,w
  3650  019C  00C5               	movwf	??___fldiv+3
  3651  019D  3001               	movlw	1
  3652  019E  00C6               	movwf	??___fldiv+4
  3653  019F                     u2575:
  3654  019F  0D45               	rlf	??___fldiv+3,w
  3655  01A0  0CC5               	rrf	??___fldiv+3,f
  3656  01A1  0CC4               	rrf	??___fldiv+2,f
  3657  01A2  0CC3               	rrf	??___fldiv+1,f
  3658  01A3  0CC2               	rrf	??___fldiv,f
  3659  01A4                     u2570:
  3660  01A4  0BC6               	decfsz	??___fldiv+4,f
  3661  01A5  299F               	goto	u2575
  3662  01A6  0845               	movf	??___fldiv+3,w
  3663  01A7  00C1               	movwf	___fldiv@b+3
  3664  01A8  0844               	movf	??___fldiv+2,w
  3665  01A9  00C0               	movwf	___fldiv@b+2
  3666  01AA  0843               	movf	??___fldiv+1,w
  3667  01AB  00BF               	movwf	___fldiv@b+1
  3668  01AC  0842               	movf	??___fldiv,w
  3669  01AD  00BE               	movwf	___fldiv@b
  3670  01AE                     l2039:
  3671  01AE  3001               	movlw	1
  3672  01AF  07CC               	addwf	___fldiv@new_exp,f
  3673  01B0  1803               	skipnc
  3674  01B1  0ACD               	incf	___fldiv@new_exp+1,f
  3675  01B2  3000               	movlw	0
  3676  01B3  07CD               	addwf	___fldiv@new_exp+1,f
  3677  01B4                     l2041:
  3678  01B4  084D               	movf	___fldiv@new_exp+1,w
  3679  01B5  3A80               	xorlw	128
  3680  01B6  00FF               	movwf	btemp+1
  3681  01B7  3080               	movlw	128
  3682  01B8  027F               	subwf	btemp+1,w
  3683  01B9  1D03               	skipz
  3684  01BA  29BD               	goto	u2585
  3685  01BB  30FF               	movlw	255
  3686  01BC  024C               	subwf	___fldiv@new_exp,w
  3687  01BD                     u2585:
  3688  01BD  1C03               	skipc
  3689  01BE  29C0               	goto	u2581
  3690  01BF  29C1               	goto	u2580
  3691  01C0                     u2581:
  3692  01C0  29CF               	goto	l2045
  3693  01C1                     u2580:
  3694  01C1                     l2043:
  3695  01C1  30FF               	movlw	255
  3696  01C2  1283               	bcf	3,5	;RP0=0, select bank0
  3697  01C3  1303               	bcf	3,6	;RP1=0, select bank0
  3698  01C4  00CC               	movwf	___fldiv@new_exp
  3699  01C5  3000               	movlw	0
  3700  01C6  00CD               	movwf	___fldiv@new_exp+1
  3701  01C7  3000               	movlw	0
  3702  01C8  00C1               	movwf	___fldiv@b+3
  3703  01C9  3000               	movlw	0
  3704  01CA  00C0               	movwf	___fldiv@b+2
  3705  01CB  3000               	movlw	0
  3706  01CC  00BF               	movwf	___fldiv@b+1
  3707  01CD  3000               	movlw	0
  3708  01CE  00BE               	movwf	___fldiv@b
  3709  01CF                     l2045:
  3710  01CF  1283               	bcf	3,5	;RP0=0, select bank0
  3711  01D0  1303               	bcf	3,6	;RP1=0, select bank0
  3712  01D1  084D               	movf	___fldiv@new_exp+1,w
  3713  01D2  3A80               	xorlw	128
  3714  01D3  00FF               	movwf	btemp+1
  3715  01D4  3080               	movlw	128
  3716  01D5  027F               	subwf	btemp+1,w
  3717  01D6  1D03               	skipz
  3718  01D7  29DA               	goto	u2595
  3719  01D8  3001               	movlw	1
  3720  01D9  024C               	subwf	___fldiv@new_exp,w
  3721  01DA                     u2595:
  3722  01DA  1803               	skipnc
  3723  01DB  29DD               	goto	u2591
  3724  01DC  29DE               	goto	u2590
  3725  01DD                     u2591:
  3726  01DD  29EB               	goto	l646
  3727  01DE                     u2590:
  3728  01DE                     l2047:
  3729  01DE  1283               	bcf	3,5	;RP0=0, select bank0
  3730  01DF  1303               	bcf	3,6	;RP1=0, select bank0
  3731  01E0  01CC               	clrf	___fldiv@new_exp
  3732  01E1  01CD               	clrf	___fldiv@new_exp+1
  3733  01E2                     l2049:
  3734  01E2  3000               	movlw	0
  3735  01E3  00C1               	movwf	___fldiv@b+3
  3736  01E4  3000               	movlw	0
  3737  01E5  00C0               	movwf	___fldiv@b+2
  3738  01E6  3000               	movlw	0
  3739  01E7  00BF               	movwf	___fldiv@b+1
  3740  01E8  3000               	movlw	0
  3741  01E9  00BE               	movwf	___fldiv@b
  3742  01EA                     l2051:
  3743  01EA  01CB               	clrf	___fldiv@sign
  3744  01EB                     l646:
  3745  01EB  1283               	bcf	3,5	;RP0=0, select bank0
  3746  01EC  1303               	bcf	3,6	;RP1=0, select bank0
  3747  01ED  084C               	movf	___fldiv@new_exp,w
  3748  01EE  00C2               	movwf	??___fldiv
  3749  01EF  0842               	movf	??___fldiv,w
  3750  01F0  00D2               	movwf	___fldiv@bexp
  3751  01F1                     l2053:
  3752  01F1  1C52               	btfss	___fldiv@bexp,0
  3753  01F2  29F4               	goto	u2601
  3754  01F3  29F5               	goto	u2600
  3755  01F4                     u2601:
  3756  01F4  29F7               	goto	l2057
  3757  01F5                     u2600:
  3758  01F5                     l2055:
  3759  01F5  17C0               	bsf	___fldiv@b+2,7
  3760  01F6  29FB               	goto	l648
  3761  01F7                     l2057:
  3762  01F7  307F               	movlw	127
  3763  01F8  00C2               	movwf	??___fldiv
  3764  01F9  0842               	movf	??___fldiv,w
  3765  01FA  05C0               	andwf	___fldiv@b+2,f
  3766  01FB                     l648:
  3767  01FB  0852               	movf	___fldiv@bexp,w
  3768  01FC  00C2               	movwf	??___fldiv
  3769  01FD  1003               	clrc
  3770  01FE  0C42               	rrf	??___fldiv,w
  3771  01FF  00C3               	movwf	??___fldiv+1
  3772  0200  0843               	movf	??___fldiv+1,w
  3773  0201  00C1               	movwf	___fldiv@b+3
  3774  0202  084B               	movf	___fldiv@sign,w
  3775  0203  00C2               	movwf	??___fldiv
  3776  0204  0842               	movf	??___fldiv,w
  3777  0205  04C1               	iorwf	___fldiv@b+3,f
  3778  0206  289F               	goto	l1965
  3779  0207                     l626:
  3780  0207  0008               	return
  3781  0208                     __end_of___fldiv:
  3782                           
  3783                           	psect	text9
  3784  0208                     __ptext9:	
  3785 ;; *************** function ___fladd *****************
  3786 ;; Defined at:
  3787 ;;		line 10 in file "C:\Program Files\Microchip\xc8\v2.31\pic\sources\c90\common\sprcadd.c"
  3788 ;; Parameters:    Size  Location     Type
  3789 ;;  b               4   52[BANK0 ] unsigned char 
  3790 ;;  a               4   56[BANK0 ] unsigned char 
  3791 ;; Auto vars:     Size  Location     Type
  3792 ;;  grs             1   71[BANK0 ] unsigned char 
  3793 ;;  bexp            1   70[BANK0 ] unsigned char 
  3794 ;;  aexp            1   69[BANK0 ] unsigned char 
  3795 ;;  signs           1   68[BANK0 ] unsigned char 
  3796 ;; Return value:  Size  Location     Type
  3797 ;;                  4   52[BANK0 ] unsigned char 
  3798 ;; Registers used:
  3799 ;;		wreg, status,2, status,0, btemp+1
  3800 ;; Tracked objects:
  3801 ;;		On entry : 0/0
  3802 ;;		On exit  : 0/0
  3803 ;;		Unchanged: 0/0
  3804 ;; Data sizes:     COMMON   BANK0   BANK1   BANK3   BANK2
  3805 ;;      Params:         0       8       0       0       0
  3806 ;;      Locals:         0       4       0       0       0
  3807 ;;      Temps:          0       8       0       0       0
  3808 ;;      Totals:         0      20       0       0       0
  3809 ;;Total ram usage:       20 bytes
  3810 ;; Hardware stack levels used:    1
  3811 ;; This function calls:
  3812 ;;		Nothing
  3813 ;; This function is called by:
  3814 ;;		_main
  3815 ;; This function uses a non-reentrant model
  3816 ;;
  3817                           
  3818                           
  3819                           ;psect for function ___fladd
  3820  0208                     ___fladd:
  3821  0208                     l1727:	
  3822                           ;incstack = 0
  3823                           ; Regs used in ___fladd: [wreg+status,2+status,0+btemp+1]
  3824                           
  3825  0208  1283               	bcf	3,5	;RP0=0, select bank0
  3826  0209  1303               	bcf	3,6	;RP1=0, select bank0
  3827  020A  0857               	movf	___fladd@b+3,w
  3828  020B  3980               	andlw	128
  3829  020C  00DC               	movwf	??___fladd
  3830  020D  085C               	movf	??___fladd,w
  3831  020E  00E4               	movwf	___fladd@signs
  3832  020F                     l1729:
  3833  020F  0857               	movf	___fladd@b+3,w
  3834  0210  00DC               	movwf	??___fladd
  3835  0211  075C               	addwf	??___fladd,w
  3836  0212  00DD               	movwf	??___fladd+1
  3837  0213  085D               	movf	??___fladd+1,w
  3838  0214  00E6               	movwf	___fladd@bexp
  3839  0215                     l1731:
  3840  0215  1FD6               	btfss	___fladd@b+2,7
  3841  0216  2A18               	goto	u1861
  3842  0217  2A19               	goto	u1860
  3843  0218                     u1861:
  3844  0218  2A1A               	goto	l1735
  3845  0219                     u1860:
  3846  0219                     l1733:
  3847  0219  1466               	bsf	___fladd@bexp,0
  3848  021A                     l1735:
  3849  021A  0866               	movf	___fladd@bexp,w
  3850  021B  1903               	btfsc	3,2
  3851  021C  2A1E               	goto	u1871
  3852  021D  2A1F               	goto	u1870
  3853  021E                     u1871:
  3854  021E  2A2F               	goto	l1745
  3855  021F                     u1870:
  3856  021F                     l1737:
  3857  021F  0A66               	incf	___fladd@bexp,w
  3858  0220  1D03               	btfss	3,2
  3859  0221  2A23               	goto	u1881
  3860  0222  2A24               	goto	u1880
  3861  0223                     u1881:
  3862  0223  2A2C               	goto	l1741
  3863  0224                     u1880:
  3864  0224                     l1739:
  3865  0224  3000               	movlw	0
  3866  0225  00D7               	movwf	___fladd@b+3
  3867  0226  3000               	movlw	0
  3868  0227  00D6               	movwf	___fladd@b+2
  3869  0228  3000               	movlw	0
  3870  0229  00D5               	movwf	___fladd@b+1
  3871  022A  3000               	movlw	0
  3872  022B  00D4               	movwf	___fladd@b
  3873  022C                     l1741:
  3874  022C  17D6               	bsf	___fladd@b+2,7
  3875  022D                     l1743:
  3876  022D  01D7               	clrf	___fladd@b+3
  3877  022E  2A37               	goto	l1747
  3878  022F                     l1745:
  3879  022F  3000               	movlw	0
  3880  0230  00D7               	movwf	___fladd@b+3
  3881  0231  3000               	movlw	0
  3882  0232  00D6               	movwf	___fladd@b+2
  3883  0233  3000               	movlw	0
  3884  0234  00D5               	movwf	___fladd@b+1
  3885  0235  3000               	movlw	0
  3886  0236  00D4               	movwf	___fladd@b
  3887  0237                     l1747:
  3888  0237  085B               	movf	___fladd@a+3,w
  3889  0238  3980               	andlw	128
  3890  0239  00DC               	movwf	??___fladd
  3891  023A  085C               	movf	??___fladd,w
  3892  023B  00E5               	movwf	___fladd@aexp
  3893  023C                     l1749:
  3894  023C  0865               	movf	___fladd@aexp,w
  3895  023D  0664               	xorwf	___fladd@signs,w
  3896  023E  1903               	skipnz
  3897  023F  2A41               	goto	u1891
  3898  0240  2A42               	goto	u1890
  3899  0241                     u1891:
  3900  0241  2A43               	goto	l1753
  3901  0242                     u1890:
  3902  0242                     l1751:
  3903  0242  1764               	bsf	___fladd@signs,6
  3904  0243                     l1753:
  3905  0243  085B               	movf	___fladd@a+3,w
  3906  0244  00DC               	movwf	??___fladd
  3907  0245  075C               	addwf	??___fladd,w
  3908  0246  00DD               	movwf	??___fladd+1
  3909  0247  085D               	movf	??___fladd+1,w
  3910  0248  00E5               	movwf	___fladd@aexp
  3911  0249                     l1755:
  3912  0249  1FDA               	btfss	___fladd@a+2,7
  3913  024A  2A4C               	goto	u1901
  3914  024B  2A4D               	goto	u1900
  3915  024C                     u1901:
  3916  024C  2A4E               	goto	l1759
  3917  024D                     u1900:
  3918  024D                     l1757:
  3919  024D  1465               	bsf	___fladd@aexp,0
  3920  024E                     l1759:
  3921  024E  0865               	movf	___fladd@aexp,w
  3922  024F  1903               	btfsc	3,2
  3923  0250  2A52               	goto	u1911
  3924  0251  2A53               	goto	u1910
  3925  0252                     u1911:
  3926  0252  2A63               	goto	l1769
  3927  0253                     u1910:
  3928  0253                     l1761:
  3929  0253  0A65               	incf	___fladd@aexp,w
  3930  0254  1D03               	btfss	3,2
  3931  0255  2A57               	goto	u1921
  3932  0256  2A58               	goto	u1920
  3933  0257                     u1921:
  3934  0257  2A60               	goto	l1765
  3935  0258                     u1920:
  3936  0258                     l1763:
  3937  0258  3000               	movlw	0
  3938  0259  00DB               	movwf	___fladd@a+3
  3939  025A  3000               	movlw	0
  3940  025B  00DA               	movwf	___fladd@a+2
  3941  025C  3000               	movlw	0
  3942  025D  00D9               	movwf	___fladd@a+1
  3943  025E  3000               	movlw	0
  3944  025F  00D8               	movwf	___fladd@a
  3945  0260                     l1765:
  3946  0260  17DA               	bsf	___fladd@a+2,7
  3947  0261                     l1767:
  3948  0261  01DB               	clrf	___fladd@a+3
  3949  0262  2A6B               	goto	l568
  3950  0263                     l1769:
  3951  0263  3000               	movlw	0
  3952  0264  00DB               	movwf	___fladd@a+3
  3953  0265  3000               	movlw	0
  3954  0266  00DA               	movwf	___fladd@a+2
  3955  0267  3000               	movlw	0
  3956  0268  00D9               	movwf	___fladd@a+1
  3957  0269  3000               	movlw	0
  3958  026A  00D8               	movwf	___fladd@a
  3959  026B                     l568:
  3960  026B  0866               	movf	___fladd@bexp,w
  3961  026C  0265               	subwf	___fladd@aexp,w
  3962  026D  1803               	skipnc
  3963  026E  2A70               	goto	u1931
  3964  026F  2A71               	goto	u1930
  3965  0270                     u1931:
  3966  0270  2AB5               	goto	l1805
  3967  0271                     u1930:
  3968  0271                     l1771:
  3969  0271  1F64               	btfss	___fladd@signs,6
  3970  0272  2A74               	goto	u1941
  3971  0273  2A75               	goto	u1940
  3972  0274                     u1941:
  3973  0274  2A79               	goto	l1775
  3974  0275                     u1940:
  3975  0275                     l1773:
  3976  0275  3080               	movlw	128
  3977  0276  00DC               	movwf	??___fladd
  3978  0277  085C               	movf	??___fladd,w
  3979  0278  06E4               	xorwf	___fladd@signs,f
  3980  0279                     l1775:
  3981  0279  0866               	movf	___fladd@bexp,w
  3982  027A  00DC               	movwf	??___fladd
  3983  027B  085C               	movf	??___fladd,w
  3984  027C  00E7               	movwf	___fladd@grs
  3985  027D                     l1777:
  3986  027D  0865               	movf	___fladd@aexp,w
  3987  027E  00DC               	movwf	??___fladd
  3988  027F  085C               	movf	??___fladd,w
  3989  0280  00E6               	movwf	___fladd@bexp
  3990  0281                     l1779:
  3991  0281  0867               	movf	___fladd@grs,w
  3992  0282  00DC               	movwf	??___fladd
  3993  0283  085C               	movf	??___fladd,w
  3994  0284  00E5               	movwf	___fladd@aexp
  3995  0285                     l1781:
  3996  0285  0854               	movf	___fladd@b,w
  3997  0286  00DC               	movwf	??___fladd
  3998  0287  085C               	movf	??___fladd,w
  3999  0288  00E7               	movwf	___fladd@grs
  4000  0289                     l1783:
  4001  0289  0858               	movf	___fladd@a,w
  4002  028A  00DC               	movwf	??___fladd
  4003  028B  085C               	movf	??___fladd,w
  4004  028C  00D4               	movwf	___fladd@b
  4005  028D                     l1785:
  4006  028D  0867               	movf	___fladd@grs,w
  4007  028E  00DC               	movwf	??___fladd
  4008  028F  085C               	movf	??___fladd,w
  4009  0290  00D8               	movwf	___fladd@a
  4010  0291                     l1787:
  4011  0291  0855               	movf	___fladd@b+1,w
  4012  0292  00DC               	movwf	??___fladd
  4013  0293  085C               	movf	??___fladd,w
  4014  0294  00E7               	movwf	___fladd@grs
  4015  0295                     l1789:
  4016  0295  0859               	movf	___fladd@a+1,w
  4017  0296  00DC               	movwf	??___fladd
  4018  0297  085C               	movf	??___fladd,w
  4019  0298  00D5               	movwf	___fladd@b+1
  4020  0299                     l1791:
  4021  0299  0867               	movf	___fladd@grs,w
  4022  029A  00DC               	movwf	??___fladd
  4023  029B  085C               	movf	??___fladd,w
  4024  029C  00D9               	movwf	___fladd@a+1
  4025  029D                     l1793:
  4026  029D  0856               	movf	___fladd@b+2,w
  4027  029E  00DC               	movwf	??___fladd
  4028  029F  085C               	movf	??___fladd,w
  4029  02A0  00E7               	movwf	___fladd@grs
  4030  02A1                     l1795:
  4031  02A1  085A               	movf	___fladd@a+2,w
  4032  02A2  00DC               	movwf	??___fladd
  4033  02A3  085C               	movf	??___fladd,w
  4034  02A4  00D6               	movwf	___fladd@b+2
  4035  02A5                     l1797:
  4036  02A5  0867               	movf	___fladd@grs,w
  4037  02A6  00DC               	movwf	??___fladd
  4038  02A7  085C               	movf	??___fladd,w
  4039  02A8  00DA               	movwf	___fladd@a+2
  4040  02A9                     l1799:
  4041  02A9  0857               	movf	___fladd@b+3,w
  4042  02AA  00DC               	movwf	??___fladd
  4043  02AB  085C               	movf	??___fladd,w
  4044  02AC  00E7               	movwf	___fladd@grs
  4045  02AD                     l1801:
  4046  02AD  085B               	movf	___fladd@a+3,w
  4047  02AE  00DC               	movwf	??___fladd
  4048  02AF  085C               	movf	??___fladd,w
  4049  02B0  00D7               	movwf	___fladd@b+3
  4050  02B1                     l1803:
  4051  02B1  0867               	movf	___fladd@grs,w
  4052  02B2  00DC               	movwf	??___fladd
  4053  02B3  085C               	movf	??___fladd,w
  4054  02B4  00DB               	movwf	___fladd@a+3
  4055  02B5                     l1805:
  4056  02B5  01E7               	clrf	___fladd@grs
  4057  02B6                     l1807:
  4058  02B6  0865               	movf	___fladd@aexp,w
  4059  02B7  00DC               	movwf	??___fladd
  4060  02B8  01DD               	clrf	??___fladd+1
  4061  02B9  085D               	movf	??___fladd+1,w
  4062  02BA  00DF               	movwf	??___fladd+3
  4063  02BB  0866               	movf	___fladd@bexp,w
  4064  02BC  025C               	subwf	??___fladd,w
  4065  02BD  00DE               	movwf	??___fladd+2
  4066  02BE  1C03               	skipc
  4067  02BF  03DF               	decf	??___fladd+3,f
  4068  02C0  085F               	movf	??___fladd+3,w
  4069  02C1  3A80               	xorlw	128
  4070  02C2  00FF               	movwf	btemp+1
  4071  02C3  3080               	movlw	128
  4072  02C4  027F               	subwf	btemp+1,w
  4073  02C5  1D03               	skipz
  4074  02C6  2AC9               	goto	u1955
  4075  02C7  301A               	movlw	26
  4076  02C8  025E               	subwf	??___fladd+2,w
  4077  02C9                     u1955:
  4078  02C9  1C03               	skipc
  4079  02CA  2ACC               	goto	u1951
  4080  02CB  2ACD               	goto	u1950
  4081  02CC                     u1951:
  4082  02CC  2B0A               	goto	l1823
  4083  02CD                     u1950:
  4084  02CD                     l1809:
  4085  02CD  1283               	bcf	3,5	;RP0=0, select bank0
  4086  02CE  1303               	bcf	3,6	;RP1=0, select bank0
  4087  02CF  0857               	movf	___fladd@b+3,w
  4088  02D0  0456               	iorwf	___fladd@b+2,w
  4089  02D1  0455               	iorwf	___fladd@b+1,w
  4090  02D2  0454               	iorwf	___fladd@b,w
  4091  02D3  1D03               	skipz
  4092  02D4  2AD6               	goto	u1961
  4093  02D5  2AD8               	goto	u1960
  4094  02D6                     u1961:
  4095  02D6  3001               	movlw	1
  4096  02D7  2AD9               	goto	u1970
  4097  02D8                     u1960:
  4098  02D8  3000               	movlw	0
  4099  02D9                     u1970:
  4100  02D9  00DC               	movwf	??___fladd
  4101  02DA  085C               	movf	??___fladd,w
  4102  02DB  00E7               	movwf	___fladd@grs
  4103  02DC  3000               	movlw	0
  4104  02DD  00D7               	movwf	___fladd@b+3
  4105  02DE  3000               	movlw	0
  4106  02DF  00D6               	movwf	___fladd@b+2
  4107  02E0  3000               	movlw	0
  4108  02E1  00D5               	movwf	___fladd@b+1
  4109  02E2  3000               	movlw	0
  4110  02E3  00D4               	movwf	___fladd@b
  4111  02E4  0865               	movf	___fladd@aexp,w
  4112  02E5  00DC               	movwf	??___fladd
  4113  02E6  085C               	movf	??___fladd,w
  4114  02E7  00E6               	movwf	___fladd@bexp
  4115  02E8  2B12               	goto	l572
  4116  02E9                     l574:
  4117  02E9  1C67               	btfss	___fladd@grs,0
  4118  02EA  2AEC               	goto	u1981
  4119  02EB  2AED               	goto	u1980
  4120  02EC                     u1981:
  4121  02EC  2AF6               	goto	l1813
  4122  02ED                     u1980:
  4123  02ED                     l1811:
  4124  02ED  0867               	movf	___fladd@grs,w
  4125  02EE  00DC               	movwf	??___fladd
  4126  02EF  1003               	clrc
  4127  02F0  0C5C               	rrf	??___fladd,w
  4128  02F1  3801               	iorlw	1
  4129  02F2  00DD               	movwf	??___fladd+1
  4130  02F3  085D               	movf	??___fladd+1,w
  4131  02F4  00E7               	movwf	___fladd@grs
  4132  02F5  2AF8               	goto	l1815
  4133  02F6                     l1813:
  4134  02F6  1003               	clrc
  4135  02F7  0CE7               	rrf	___fladd@grs,f
  4136  02F8                     l1815:
  4137  02F8  1C54               	btfss	___fladd@b,0
  4138  02F9  2AFB               	goto	u1991
  4139  02FA  2AFC               	goto	u1990
  4140  02FB                     u1991:
  4141  02FB  2AFD               	goto	l1819
  4142  02FC                     u1990:
  4143  02FC                     l1817:
  4144  02FC  17E7               	bsf	___fladd@grs,7
  4145  02FD                     l1819:
  4146  02FD  3001               	movlw	1
  4147  02FE  00DC               	movwf	??___fladd
  4148  02FF                     u2005:
  4149  02FF  0D57               	rlf	___fladd@b+3,w
  4150  0300  0CD7               	rrf	___fladd@b+3,f
  4151  0301  0CD6               	rrf	___fladd@b+2,f
  4152  0302  0CD5               	rrf	___fladd@b+1,f
  4153  0303  0CD4               	rrf	___fladd@b,f
  4154  0304  0BDC               	decfsz	??___fladd& (0+127),f
  4155  0305  2AFF               	goto	u2005
  4156  0306                     l1821:
  4157  0306  3001               	movlw	1
  4158  0307  00DC               	movwf	??___fladd
  4159  0308  085C               	movf	??___fladd,w
  4160  0309  07E6               	addwf	___fladd@bexp,f
  4161  030A                     l1823:
  4162  030A  1283               	bcf	3,5	;RP0=0, select bank0
  4163  030B  1303               	bcf	3,6	;RP1=0, select bank0
  4164  030C  0865               	movf	___fladd@aexp,w
  4165  030D  0266               	subwf	___fladd@bexp,w
  4166  030E  1C03               	skipc
  4167  030F  2B11               	goto	u2011
  4168  0310  2B12               	goto	u2010
  4169  0311                     u2011:
  4170  0311  2AE9               	goto	l574
  4171  0312                     u2010:
  4172  0312                     l572:
  4173  0312  1B64               	btfsc	___fladd@signs,6
  4174  0313  2B15               	goto	u2021
  4175  0314  2B16               	goto	u2020
  4176  0315                     u2021:
  4177  0315  2B61               	goto	l1849
  4178  0316                     u2020:
  4179  0316                     l1825:
  4180  0316  0866               	movf	___fladd@bexp,w
  4181  0317  1D03               	btfss	3,2
  4182  0318  2B1A               	goto	u2031
  4183  0319  2B1B               	goto	u2030
  4184  031A                     u2031:
  4185  031A  2B24               	goto	l1831
  4186  031B                     u2030:
  4187  031B                     l1827:
  4188  031B  3000               	movlw	0
  4189  031C  00D7               	movwf	?___fladd+3
  4190  031D  3000               	movlw	0
  4191  031E  00D6               	movwf	?___fladd+2
  4192  031F  3000               	movlw	0
  4193  0320  00D5               	movwf	?___fladd+1
  4194  0321  3000               	movlw	0
  4195  0322  00D4               	movwf	?___fladd
  4196  0323  2C8F               	goto	l581
  4197  0324                     l1831:
  4198  0324  0858               	movf	___fladd@a,w
  4199  0325  07D4               	addwf	___fladd@b,f
  4200  0326  0859               	movf	___fladd@a+1,w
  4201  0327  1103               	clrz
  4202  0328  1803               	skipnc
  4203  0329  3E01               	addlw	1
  4204  032A  1903               	skipnz
  4205  032B  2B2D               	goto	u2041
  4206  032C  07D5               	addwf	___fladd@b+1,f
  4207  032D                     u2041:
  4208  032D  085A               	movf	___fladd@a+2,w
  4209  032E  1103               	clrz
  4210  032F  1803               	skipnc
  4211  0330  3E01               	addlw	1
  4212  0331  1903               	skipnz
  4213  0332  2B34               	goto	u2042
  4214  0333  07D6               	addwf	___fladd@b+2,f
  4215  0334                     u2042:
  4216  0334  085B               	movf	___fladd@a+3,w
  4217  0335  1103               	clrz
  4218  0336  1803               	skipnc
  4219  0337  3E01               	addlw	1
  4220  0338  1903               	skipnz
  4221  0339  2B3B               	goto	u2043
  4222  033A  07D7               	addwf	___fladd@b+3,f
  4223  033B                     u2043:
  4224  033B                     l1833:
  4225  033B  1C57               	btfss	___fladd@b+3,0
  4226  033C  2B3E               	goto	u2051
  4227  033D  2B3F               	goto	u2050
  4228  033E                     u2051:
  4229  033E  2C15               	goto	l1883
  4230  033F                     u2050:
  4231  033F                     l1835:
  4232  033F  1C67               	btfss	___fladd@grs,0
  4233  0340  2B42               	goto	u2061
  4234  0341  2B43               	goto	u2060
  4235  0342                     u2061:
  4236  0342  2B4C               	goto	l1839
  4237  0343                     u2060:
  4238  0343                     l1837:
  4239  0343  0867               	movf	___fladd@grs,w
  4240  0344  00DC               	movwf	??___fladd
  4241  0345  1003               	clrc
  4242  0346  0C5C               	rrf	??___fladd,w
  4243  0347  3801               	iorlw	1
  4244  0348  00DD               	movwf	??___fladd+1
  4245  0349  085D               	movf	??___fladd+1,w
  4246  034A  00E7               	movwf	___fladd@grs
  4247  034B  2B4E               	goto	l1841
  4248  034C                     l1839:
  4249  034C  1003               	clrc
  4250  034D  0CE7               	rrf	___fladd@grs,f
  4251  034E                     l1841:
  4252  034E  1C54               	btfss	___fladd@b,0
  4253  034F  2B51               	goto	u2071
  4254  0350  2B52               	goto	u2070
  4255  0351                     u2071:
  4256  0351  2B53               	goto	l1845
  4257  0352                     u2070:
  4258  0352                     l1843:
  4259  0352  17E7               	bsf	___fladd@grs,7
  4260  0353                     l1845:
  4261  0353  3001               	movlw	1
  4262  0354  00DC               	movwf	??___fladd
  4263  0355                     u2085:
  4264  0355  0D57               	rlf	___fladd@b+3,w
  4265  0356  0CD7               	rrf	___fladd@b+3,f
  4266  0357  0CD6               	rrf	___fladd@b+2,f
  4267  0358  0CD5               	rrf	___fladd@b+1,f
  4268  0359  0CD4               	rrf	___fladd@b,f
  4269  035A  0BDC               	decfsz	??___fladd& (0+127),f
  4270  035B  2B55               	goto	u2085
  4271  035C                     l1847:
  4272  035C  3001               	movlw	1
  4273  035D  00DC               	movwf	??___fladd
  4274  035E  085C               	movf	??___fladd,w
  4275  035F  07E6               	addwf	___fladd@bexp,f
  4276  0360  2C15               	goto	l1883
  4277  0361                     l1849:
  4278  0361  0857               	movf	___fladd@b+3,w
  4279  0362  3A80               	xorlw	128
  4280  0363  00FF               	movwf	btemp+1
  4281  0364  085B               	movf	___fladd@a+3,w
  4282  0365  3A80               	xorlw	128
  4283  0366  027F               	subwf	btemp+1,w
  4284  0367  1D03               	skipz
  4285  0368  2B73               	goto	u2093
  4286  0369  085A               	movf	___fladd@a+2,w
  4287  036A  0256               	subwf	___fladd@b+2,w
  4288  036B  1D03               	skipz
  4289  036C  2B73               	goto	u2093
  4290  036D  0859               	movf	___fladd@a+1,w
  4291  036E  0255               	subwf	___fladd@b+1,w
  4292  036F  1D03               	skipz
  4293  0370  2B73               	goto	u2093
  4294  0371  0858               	movf	___fladd@a,w
  4295  0372  0254               	subwf	___fladd@b,w
  4296  0373                     u2093:
  4297  0373  1803               	skipnc
  4298  0374  2B76               	goto	u2091
  4299  0375  2B77               	goto	u2090
  4300  0376                     u2091:
  4301  0376  2BCF               	goto	l1859
  4302  0377                     u2090:
  4303  0377                     l1851:
  4304  0377  30FF               	movlw	255
  4305  0378  00DC               	movwf	??___fladd
  4306  0379  30FF               	movlw	255
  4307  037A  00DD               	movwf	??___fladd+1
  4308  037B  30FF               	movlw	255
  4309  037C  00DE               	movwf	??___fladd+2
  4310  037D  30FF               	movlw	255
  4311  037E  00DF               	movwf	??___fladd+3
  4312  037F  0858               	movf	___fladd@a,w
  4313  0380  00E0               	movwf	??___fladd+4
  4314  0381  0859               	movf	___fladd@a+1,w
  4315  0382  00E1               	movwf	??___fladd+5
  4316  0383  085A               	movf	___fladd@a+2,w
  4317  0384  00E2               	movwf	??___fladd+6
  4318  0385  085B               	movf	___fladd@a+3,w
  4319  0386  00E3               	movwf	??___fladd+7
  4320  0387  0854               	movf	___fladd@b,w
  4321  0388  02E0               	subwf	??___fladd+4,f
  4322  0389  0855               	movf	___fladd@b+1,w
  4323  038A  1C03               	skipc
  4324  038B  0F55               	incfsz	___fladd@b+1,w
  4325  038C  2B8E               	goto	u2101
  4326  038D  2B8F               	goto	u2102
  4327  038E                     u2101:
  4328  038E  02E1               	subwf	??___fladd+5,f
  4329  038F                     u2102:
  4330  038F  0856               	movf	___fladd@b+2,w
  4331  0390  1C03               	skipc
  4332  0391  0F56               	incfsz	___fladd@b+2,w
  4333  0392  2B94               	goto	u2103
  4334  0393  2B95               	goto	u2104
  4335  0394                     u2103:
  4336  0394  02E2               	subwf	??___fladd+6,f
  4337  0395                     u2104:
  4338  0395  0857               	movf	___fladd@b+3,w
  4339  0396  1C03               	skipc
  4340  0397  0F57               	incfsz	___fladd@b+3,w
  4341  0398  2B9A               	goto	u2105
  4342  0399  2B9B               	goto	u2106
  4343  039A                     u2105:
  4344  039A  02E3               	subwf	??___fladd+7,f
  4345  039B                     u2106:
  4346  039B  0860               	movf	??___fladd+4,w
  4347  039C  07DC               	addwf	??___fladd,f
  4348  039D  0861               	movf	??___fladd+5,w
  4349  039E  1803               	skipnc
  4350  039F  0F61               	incfsz	??___fladd+5,w
  4351  03A0  2BA2               	goto	u2110
  4352  03A1  2BA3               	goto	u2111
  4353  03A2                     u2110:
  4354  03A2  07DD               	addwf	??___fladd+1,f
  4355  03A3                     u2111:
  4356  03A3  0862               	movf	??___fladd+6,w
  4357  03A4  1803               	skipnc
  4358  03A5  0F62               	incfsz	??___fladd+6,w
  4359  03A6  2BA8               	goto	u2112
  4360  03A7  2BA9               	goto	u2113
  4361  03A8                     u2112:
  4362  03A8  07DE               	addwf	??___fladd+2,f
  4363  03A9                     u2113:
  4364  03A9  0863               	movf	??___fladd+7,w
  4365  03AA  1803               	skipnc
  4366  03AB  0A63               	incf	??___fladd+7,w
  4367  03AC  07DF               	addwf	??___fladd+3,f
  4368  03AD  085F               	movf	??___fladd+3,w
  4369  03AE  00D7               	movwf	___fladd@b+3
  4370  03AF  085E               	movf	??___fladd+2,w
  4371  03B0  00D6               	movwf	___fladd@b+2
  4372  03B1  085D               	movf	??___fladd+1,w
  4373  03B2  00D5               	movwf	___fladd@b+1
  4374  03B3  085C               	movf	??___fladd,w
  4375  03B4  00D4               	movwf	___fladd@b
  4376  03B5                     l1853:
  4377  03B5  3080               	movlw	128
  4378  03B6  00DC               	movwf	??___fladd
  4379  03B7  085C               	movf	??___fladd,w
  4380  03B8  06E4               	xorwf	___fladd@signs,f
  4381  03B9  09E7               	comf	___fladd@grs,f
  4382  03BA  0AE7               	incf	___fladd@grs,f
  4383  03BB                     l1855:
  4384  03BB  0867               	movf	___fladd@grs,w
  4385  03BC  1D03               	btfss	3,2
  4386  03BD  2BBF               	goto	u2121
  4387  03BE  2BC0               	goto	u2120
  4388  03BF                     u2121:
  4389  03BF  2BDD               	goto	l589
  4390  03C0                     u2120:
  4391  03C0                     l1857:
  4392  03C0  3001               	movlw	1
  4393  03C1  07D4               	addwf	___fladd@b,f
  4394  03C2  3000               	movlw	0
  4395  03C3  1803               	skipnc
  4396  03C4  3001               	movlw	1
  4397  03C5  07D5               	addwf	___fladd@b+1,f
  4398  03C6  3000               	movlw	0
  4399  03C7  1803               	skipnc
  4400  03C8  3001               	movlw	1
  4401  03C9  07D6               	addwf	___fladd@b+2,f
  4402  03CA  3000               	movlw	0
  4403  03CB  1803               	skipnc
  4404  03CC  3001               	movlw	1
  4405  03CD  07D7               	addwf	___fladd@b+3,f
  4406  03CE  2BDD               	goto	l589
  4407  03CF                     l1859:
  4408  03CF  0858               	movf	___fladd@a,w
  4409  03D0  02D4               	subwf	___fladd@b,f
  4410  03D1  0859               	movf	___fladd@a+1,w
  4411  03D2  1C03               	skipc
  4412  03D3  0F59               	incfsz	___fladd@a+1,w
  4413  03D4  02D5               	subwf	___fladd@b+1,f
  4414  03D5  085A               	movf	___fladd@a+2,w
  4415  03D6  1C03               	skipc
  4416  03D7  0F5A               	incfsz	___fladd@a+2,w
  4417  03D8  02D6               	subwf	___fladd@b+2,f
  4418  03D9  085B               	movf	___fladd@a+3,w
  4419  03DA  1C03               	skipc
  4420  03DB  0F5B               	incfsz	___fladd@a+3,w
  4421  03DC  02D7               	subwf	___fladd@b+3,f
  4422  03DD                     l589:
  4423  03DD  0857               	movf	___fladd@b+3,w
  4424  03DE  0456               	iorwf	___fladd@b+2,w
  4425  03DF  0455               	iorwf	___fladd@b+1,w
  4426  03E0  0454               	iorwf	___fladd@b,w
  4427  03E1  1D03               	skipz
  4428  03E2  2BE4               	goto	u2131
  4429  03E3  2BE5               	goto	u2130
  4430  03E4                     u2131:
  4431  03E4  2C11               	goto	l1881
  4432  03E5                     u2130:
  4433  03E5                     l1861:
  4434  03E5  0867               	movf	___fladd@grs,w
  4435  03E6  1D03               	btfss	3,2
  4436  03E7  2BE9               	goto	u2141
  4437  03E8  2BEA               	goto	u2140
  4438  03E9                     u2141:
  4439  03E9  2C11               	goto	l1881
  4440  03EA                     u2140:
  4441  03EA                     l1863:
  4442  03EA  3000               	movlw	0
  4443  03EB  00D7               	movwf	?___fladd+3
  4444  03EC  3000               	movlw	0
  4445  03ED  00D6               	movwf	?___fladd+2
  4446  03EE  3000               	movlw	0
  4447  03EF  00D5               	movwf	?___fladd+1
  4448  03F0  3000               	movlw	0
  4449  03F1  00D4               	movwf	?___fladd
  4450  03F2  2C8F               	goto	l581
  4451  03F3                     l1867:
  4452  03F3  3001               	movlw	1
  4453  03F4  00DC               	movwf	??___fladd
  4454  03F5                     u2155:
  4455  03F5  1003               	clrc
  4456  03F6  0DD4               	rlf	___fladd@b,f
  4457  03F7  0DD5               	rlf	___fladd@b+1,f
  4458  03F8  0DD6               	rlf	___fladd@b+2,f
  4459  03F9  0DD7               	rlf	___fladd@b+3,f
  4460  03FA  0BDC               	decfsz	??___fladd,f
  4461  03FB  2BF5               	goto	u2155
  4462  03FC                     l1869:
  4463  03FC  1FE7               	btfss	___fladd@grs,7
  4464  03FD  2BFF               	goto	u2161
  4465  03FE  2C00               	goto	u2160
  4466  03FF                     u2161:
  4467  03FF  2C01               	goto	l593
  4468  0400                     u2160:
  4469  0400                     l1871:
  4470  0400  1454               	bsf	___fladd@b,0
  4471  0401                     l593:
  4472  0401  1C67               	btfss	___fladd@grs,0
  4473  0402  2C04               	goto	u2171
  4474  0403  2C05               	goto	u2170
  4475  0404                     u2171:
  4476  0404  2C08               	goto	l1875
  4477  0405                     u2170:
  4478  0405                     l1873:
  4479  0405  1403               	setc
  4480  0406  0DE7               	rlf	___fladd@grs,f
  4481  0407  2C0A               	goto	l1877
  4482  0408                     l1875:
  4483  0408  1003               	clrc
  4484  0409  0DE7               	rlf	___fladd@grs,f
  4485  040A                     l1877:
  4486  040A  0866               	movf	___fladd@bexp,w
  4487  040B  1903               	btfsc	3,2
  4488  040C  2C0E               	goto	u2181
  4489  040D  2C0F               	goto	u2180
  4490  040E                     u2181:
  4491  040E  2C11               	goto	l1881
  4492  040F                     u2180:
  4493  040F                     l1879:
  4494  040F  3001               	movlw	1
  4495  0410  02E6               	subwf	___fladd@bexp,f
  4496  0411                     l1881:
  4497  0411  1FD6               	btfss	___fladd@b+2,7
  4498  0412  2C14               	goto	u2191
  4499  0413  2C15               	goto	u2190
  4500  0414                     u2191:
  4501  0414  2BF3               	goto	l1867
  4502  0415                     u2190:
  4503  0415                     l1883:
  4504  0415  01E5               	clrf	___fladd@aexp
  4505  0416                     l1885:
  4506  0416  1FE7               	btfss	___fladd@grs,7
  4507  0417  2C19               	goto	u2201
  4508  0418  2C1A               	goto	u2200
  4509  0419                     u2201:
  4510  0419  2C28               	goto	l1893
  4511  041A                     u2200:
  4512  041A                     l1887:
  4513  041A  0867               	movf	___fladd@grs,w
  4514  041B  397F               	andlw	127
  4515  041C  1903               	btfsc	3,2
  4516  041D  2C1F               	goto	u2211
  4517  041E  2C20               	goto	u2210
  4518  041F                     u2211:
  4519  041F  2C23               	goto	l599
  4520  0420                     u2210:
  4521  0420                     l1889:
  4522  0420  01E5               	clrf	___fladd@aexp
  4523  0421  0AE5               	incf	___fladd@aexp,f
  4524  0422  2C28               	goto	l1893
  4525  0423                     l599:
  4526  0423  1C54               	btfss	___fladd@b,0
  4527  0424  2C26               	goto	u2221
  4528  0425  2C27               	goto	u2220
  4529  0426                     u2221:
  4530  0426  2C28               	goto	l1893
  4531  0427                     u2220:
  4532  0427  2C20               	goto	l1889
  4533  0428                     l1893:
  4534  0428  0865               	movf	___fladd@aexp,w
  4535  0429  1903               	btfsc	3,2
  4536  042A  2C2C               	goto	u2231
  4537  042B  2C2D               	goto	u2230
  4538  042C                     u2231:
  4539  042C  2C61               	goto	l602
  4540  042D                     u2230:
  4541  042D                     l1895:
  4542  042D  3001               	movlw	1
  4543  042E  07D4               	addwf	___fladd@b,f
  4544  042F  3000               	movlw	0
  4545  0430  1803               	skipnc
  4546  0431  3001               	movlw	1
  4547  0432  07D5               	addwf	___fladd@b+1,f
  4548  0433  3000               	movlw	0
  4549  0434  1803               	skipnc
  4550  0435  3001               	movlw	1
  4551  0436  07D6               	addwf	___fladd@b+2,f
  4552  0437  3000               	movlw	0
  4553  0438  1803               	skipnc
  4554  0439  3001               	movlw	1
  4555  043A  07D7               	addwf	___fladd@b+3,f
  4556  043B                     l1897:
  4557  043B  1C57               	btfss	___fladd@b+3,0
  4558  043C  2C3E               	goto	u2241
  4559  043D  2C3F               	goto	u2240
  4560  043E                     u2241:
  4561  043E  2C61               	goto	l602
  4562  043F                     u2240:
  4563  043F                     l1899:
  4564  043F  0854               	movf	___fladd@b,w
  4565  0440  00DC               	movwf	??___fladd
  4566  0441  0855               	movf	___fladd@b+1,w
  4567  0442  00DD               	movwf	??___fladd+1
  4568  0443  0856               	movf	___fladd@b+2,w
  4569  0444  00DE               	movwf	??___fladd+2
  4570  0445  0857               	movf	___fladd@b+3,w
  4571  0446  00DF               	movwf	??___fladd+3
  4572  0447  3001               	movlw	1
  4573  0448  00E0               	movwf	??___fladd+4
  4574  0449                     u2255:
  4575  0449  0D5F               	rlf	??___fladd+3,w
  4576  044A  0CDF               	rrf	??___fladd+3,f
  4577  044B  0CDE               	rrf	??___fladd+2,f
  4578  044C  0CDD               	rrf	??___fladd+1,f
  4579  044D  0CDC               	rrf	??___fladd,f
  4580  044E                     u2250:
  4581  044E  0BE0               	decfsz	??___fladd+4,f
  4582  044F  2C49               	goto	u2255
  4583  0450  085F               	movf	??___fladd+3,w
  4584  0451  00D7               	movwf	___fladd@b+3
  4585  0452  085E               	movf	??___fladd+2,w
  4586  0453  00D6               	movwf	___fladd@b+2
  4587  0454  085D               	movf	??___fladd+1,w
  4588  0455  00D5               	movwf	___fladd@b+1
  4589  0456  085C               	movf	??___fladd,w
  4590  0457  00D4               	movwf	___fladd@b
  4591  0458  0A66               	incf	___fladd@bexp,w
  4592  0459  1903               	btfsc	3,2
  4593  045A  2C5C               	goto	u2261
  4594  045B  2C5D               	goto	u2260
  4595  045C                     u2261:
  4596  045C  2C61               	goto	l602
  4597  045D                     u2260:
  4598  045D                     l1901:
  4599  045D  3001               	movlw	1
  4600  045E  00DC               	movwf	??___fladd
  4601  045F  085C               	movf	??___fladd,w
  4602  0460  07E6               	addwf	___fladd@bexp,f
  4603  0461                     l602:
  4604  0461  0A66               	incf	___fladd@bexp,w
  4605  0462  1903               	btfsc	3,2
  4606  0463  2C65               	goto	u2271
  4607  0464  2C66               	goto	u2270
  4608  0465                     u2271:
  4609  0465  2C6B               	goto	l1905
  4610  0466                     u2270:
  4611  0466                     l1903:
  4612  0466  0866               	movf	___fladd@bexp,w
  4613  0467  1D03               	btfss	3,2
  4614  0468  2C6A               	goto	u2281
  4615  0469  2C6B               	goto	u2280
  4616  046A                     u2281:
  4617  046A  2C79               	goto	l1911
  4618  046B                     u2280:
  4619  046B                     l1905:
  4620  046B  3000               	movlw	0
  4621  046C  00D7               	movwf	___fladd@b+3
  4622  046D  3000               	movlw	0
  4623  046E  00D6               	movwf	___fladd@b+2
  4624  046F  3000               	movlw	0
  4625  0470  00D5               	movwf	___fladd@b+1
  4626  0471  3000               	movlw	0
  4627  0472  00D4               	movwf	___fladd@b
  4628  0473                     l1907:
  4629  0473  0866               	movf	___fladd@bexp,w
  4630  0474  1D03               	btfss	3,2
  4631  0475  2C77               	goto	u2291
  4632  0476  2C78               	goto	u2290
  4633  0477                     u2291:
  4634  0477  2C79               	goto	l1911
  4635  0478                     u2290:
  4636  0478                     l1909:
  4637  0478  01E4               	clrf	___fladd@signs
  4638  0479                     l1911:
  4639  0479  1C66               	btfss	___fladd@bexp,0
  4640  047A  2C7C               	goto	u2301
  4641  047B  2C7D               	goto	u2300
  4642  047C                     u2301:
  4643  047C  2C7F               	goto	l1915
  4644  047D                     u2300:
  4645  047D                     l1913:
  4646  047D  17D6               	bsf	___fladd@b+2,7
  4647  047E  2C83               	goto	l610
  4648  047F                     l1915:
  4649  047F  307F               	movlw	127
  4650  0480  00DC               	movwf	??___fladd
  4651  0481  085C               	movf	??___fladd,w
  4652  0482  05D6               	andwf	___fladd@b+2,f
  4653  0483                     l610:
  4654  0483  0866               	movf	___fladd@bexp,w
  4655  0484  00DC               	movwf	??___fladd
  4656  0485  1003               	clrc
  4657  0486  0C5C               	rrf	??___fladd,w
  4658  0487  00DD               	movwf	??___fladd+1
  4659  0488  085D               	movf	??___fladd+1,w
  4660  0489  00D7               	movwf	___fladd@b+3
  4661  048A                     l1917:
  4662  048A  1FE4               	btfss	___fladd@signs,7
  4663  048B  2C8D               	goto	u2311
  4664  048C  2C8E               	goto	u2310
  4665  048D                     u2311:
  4666  048D  2C8F               	goto	l611
  4667  048E                     u2310:
  4668  048E                     l1919:
  4669  048E  17D7               	bsf	___fladd@b+3,7
  4670  048F                     l611:
  4671  048F                     l581:
  4672  048F  0008               	return
  4673  0490                     __end_of___fladd:
  4674                           
  4675                           	psect	text10
  4676  0C44                     __ptext10:	
  4677 ;; *************** function _I2C_Master_Write *****************
  4678 ;; Defined at:
  4679 ;;		line 65 in file "I2C.c"
  4680 ;; Parameters:    Size  Location     Type
  4681 ;;  d               2    0[COMMON] unsigned int 
  4682 ;; Auto vars:     Size  Location     Type
  4683 ;;		None
  4684 ;; Return value:  Size  Location     Type
  4685 ;;                  1    wreg      void 
  4686 ;; Registers used:
  4687 ;;		wreg, status,2, status,0, pclath, cstack
  4688 ;; Tracked objects:
  4689 ;;		On entry : 0/0
  4690 ;;		On exit  : 0/0
  4691 ;;		Unchanged: 0/0
  4692 ;; Data sizes:     COMMON   BANK0   BANK1   BANK3   BANK2
  4693 ;;      Params:         2       0       0       0       0
  4694 ;;      Locals:         0       0       0       0       0
  4695 ;;      Temps:          0       0       0       0       0
  4696 ;;      Totals:         2       0       0       0       0
  4697 ;;Total ram usage:        2 bytes
  4698 ;; Hardware stack levels used:    1
  4699 ;; Hardware stack levels required when called:    1
  4700 ;; This function calls:
  4701 ;;		_I2C_Master_Wait
  4702 ;; This function is called by:
  4703 ;;		_main
  4704 ;; This function uses a non-reentrant model
  4705 ;;
  4706                           
  4707                           
  4708                           ;psect for function _I2C_Master_Write
  4709  0C44                     _I2C_Master_Write:
  4710  0C44                     l1667:	
  4711                           ;incstack = 0
  4712                           ; Regs used in _I2C_Master_Write: [wreg+status,2+status,0+pclath+cstack]
  4713                           
  4714                           
  4715                           ;I2C.c: 65: void I2C_Master_Write(unsigned d);I2C.c: 66: {;I2C.c: 67:     I2C_Master_Wai
      +                          t();
  4716  0C44  120A  158A  244E  120A  158A  	fcall	_I2C_Master_Wait
  4717  0C49                     l1669:
  4718                           
  4719                           ;I2C.c: 68:     SSPBUF = d;
  4720  0C49  0870               	movf	I2C_Master_Write@d,w
  4721  0C4A  1283               	bcf	3,5	;RP0=0, select bank0
  4722  0C4B  1303               	bcf	3,6	;RP1=0, select bank0
  4723  0C4C  0093               	movwf	19	;volatile
  4724  0C4D                     l108:
  4725  0C4D  0008               	return
  4726  0C4E                     __end_of_I2C_Master_Write:
  4727                           
  4728                           	psect	text11
  4729  0C3B                     __ptext11:	
  4730 ;; *************** function _I2C_Master_Stop *****************
  4731 ;; Defined at:
  4732 ;;		line 55 in file "I2C.c"
  4733 ;; Parameters:    Size  Location     Type
  4734 ;;		None
  4735 ;; Auto vars:     Size  Location     Type
  4736 ;;		None
  4737 ;; Return value:  Size  Location     Type
  4738 ;;                  1    wreg      void 
  4739 ;; Registers used:
  4740 ;;		wreg, status,2, status,0, pclath, cstack
  4741 ;; Tracked objects:
  4742 ;;		On entry : 0/0
  4743 ;;		On exit  : 0/0
  4744 ;;		Unchanged: 0/0
  4745 ;; Data sizes:     COMMON   BANK0   BANK1   BANK3   BANK2
  4746 ;;      Params:         0       0       0       0       0
  4747 ;;      Locals:         0       0       0       0       0
  4748 ;;      Temps:          0       0       0       0       0
  4749 ;;      Totals:         0       0       0       0       0
  4750 ;;Total ram usage:        0 bytes
  4751 ;; Hardware stack levels used:    1
  4752 ;; Hardware stack levels required when called:    1
  4753 ;; This function calls:
  4754 ;;		_I2C_Master_Wait
  4755 ;; This function is called by:
  4756 ;;		_main
  4757 ;; This function uses a non-reentrant model
  4758 ;;
  4759                           
  4760                           
  4761                           ;psect for function _I2C_Master_Stop
  4762  0C3B                     _I2C_Master_Stop:
  4763  0C3B                     l1671:	
  4764                           ;incstack = 0
  4765                           ; Regs used in _I2C_Master_Stop: [wreg+status,2+status,0+pclath+cstack]
  4766                           
  4767                           
  4768                           ;I2C.c: 57:     I2C_Master_Wait();
  4769  0C3B  120A  158A  244E  120A  158A  	fcall	_I2C_Master_Wait
  4770  0C40                     l1673:
  4771                           
  4772                           ;I2C.c: 58:     SSPCON2bits.PEN = 1;
  4773  0C40  1683               	bsf	3,5	;RP0=1, select bank1
  4774  0C41  1303               	bcf	3,6	;RP1=0, select bank1
  4775  0C42  1511               	bsf	17,2	;volatile
  4776  0C43                     l105:
  4777  0C43  0008               	return
  4778  0C44                     __end_of_I2C_Master_Stop:
  4779                           
  4780                           	psect	text12
  4781  0C32                     __ptext12:	
  4782 ;; *************** function _I2C_Master_Start *****************
  4783 ;; Defined at:
  4784 ;;		line 39 in file "I2C.c"
  4785 ;; Parameters:    Size  Location     Type
  4786 ;;		None
  4787 ;; Auto vars:     Size  Location     Type
  4788 ;;		None
  4789 ;; Return value:  Size  Location     Type
  4790 ;;                  1    wreg      void 
  4791 ;; Registers used:
  4792 ;;		wreg, status,2, status,0, pclath, cstack
  4793 ;; Tracked objects:
  4794 ;;		On entry : 0/0
  4795 ;;		On exit  : 0/0
  4796 ;;		Unchanged: 0/0
  4797 ;; Data sizes:     COMMON   BANK0   BANK1   BANK3   BANK2
  4798 ;;      Params:         0       0       0       0       0
  4799 ;;      Locals:         0       0       0       0       0
  4800 ;;      Temps:          0       0       0       0       0
  4801 ;;      Totals:         0       0       0       0       0
  4802 ;;Total ram usage:        0 bytes
  4803 ;; Hardware stack levels used:    1
  4804 ;; Hardware stack levels required when called:    1
  4805 ;; This function calls:
  4806 ;;		_I2C_Master_Wait
  4807 ;; This function is called by:
  4808 ;;		_main
  4809 ;; This function uses a non-reentrant model
  4810 ;;
  4811                           
  4812                           
  4813                           ;psect for function _I2C_Master_Start
  4814  0C32                     _I2C_Master_Start:
  4815  0C32                     l1663:	
  4816                           ;incstack = 0
  4817                           ; Regs used in _I2C_Master_Start: [wreg+status,2+status,0+pclath+cstack]
  4818                           
  4819                           
  4820                           ;I2C.c: 41:     I2C_Master_Wait();
  4821  0C32  120A  158A  244E  120A  158A  	fcall	_I2C_Master_Wait
  4822  0C37                     l1665:
  4823                           
  4824                           ;I2C.c: 42:     SSPCON2bits.SEN = 1;
  4825  0C37  1683               	bsf	3,5	;RP0=1, select bank1
  4826  0C38  1303               	bcf	3,6	;RP1=0, select bank1
  4827  0C39  1411               	bsf	17,0	;volatile
  4828  0C3A                     l99:
  4829  0C3A  0008               	return
  4830  0C3B                     __end_of_I2C_Master_Start:
  4831                           
  4832                           	psect	text13
  4833  0C80                     __ptext13:	
  4834 ;; *************** function _I2C_Master_Read *****************
  4835 ;; Defined at:
  4836 ;;		line 74 in file "I2C.c"
  4837 ;; Parameters:    Size  Location     Type
  4838 ;;  a               2    0[COMMON] unsigned short 
  4839 ;; Auto vars:     Size  Location     Type
  4840 ;;  temp            2    4[COMMON] unsigned short 
  4841 ;; Return value:  Size  Location     Type
  4842 ;;                  2    0[COMMON] unsigned short 
  4843 ;; Registers used:
  4844 ;;		wreg, status,2, status,0, pclath, cstack
  4845 ;; Tracked objects:
  4846 ;;		On entry : 0/0
  4847 ;;		On exit  : 0/0
  4848 ;;		Unchanged: 0/0
  4849 ;; Data sizes:     COMMON   BANK0   BANK1   BANK3   BANK2
  4850 ;;      Params:         2       0       0       0       0
  4851 ;;      Locals:         2       0       0       0       0
  4852 ;;      Temps:          2       0       0       0       0
  4853 ;;      Totals:         6       0       0       0       0
  4854 ;;Total ram usage:        6 bytes
  4855 ;; Hardware stack levels used:    1
  4856 ;; Hardware stack levels required when called:    1
  4857 ;; This function calls:
  4858 ;;		_I2C_Master_Wait
  4859 ;; This function is called by:
  4860 ;;		_main
  4861 ;; This function uses a non-reentrant model
  4862 ;;
  4863                           
  4864                           
  4865                           ;psect for function _I2C_Master_Read
  4866  0C80                     _I2C_Master_Read:
  4867  0C80                     l1675:	
  4868                           ;incstack = 0
  4869                           ; Regs used in _I2C_Master_Read: [wreg+status,2+status,0+pclath+cstack]
  4870                           
  4871                           
  4872                           ;I2C.c: 74: unsigned short I2C_Master_Read(unsigned short a);I2C.c: 75: {;I2C.c: 76:    
      +                           unsigned short temp;;I2C.c: 77:     I2C_Master_Wait();
  4873  0C80  120A  158A  244E  120A  158A  	fcall	_I2C_Master_Wait
  4874  0C85                     l1677:
  4875                           
  4876                           ;I2C.c: 78:     SSPCON2bits.RCEN = 1;
  4877  0C85  1683               	bsf	3,5	;RP0=1, select bank1
  4878  0C86  1303               	bcf	3,6	;RP1=0, select bank1
  4879  0C87  1591               	bsf	17,3	;volatile
  4880                           
  4881                           ;I2C.c: 79:     I2C_Master_Wait();
  4882  0C88  120A  158A  244E  120A  158A  	fcall	_I2C_Master_Wait
  4883  0C8D                     l1679:
  4884                           
  4885                           ;I2C.c: 80:     temp = SSPBUF;
  4886  0C8D  1283               	bcf	3,5	;RP0=0, select bank0
  4887  0C8E  1303               	bcf	3,6	;RP1=0, select bank0
  4888  0C8F  0813               	movf	19,w	;volatile
  4889  0C90  00F2               	movwf	??_I2C_Master_Read
  4890  0C91  01F3               	clrf	??_I2C_Master_Read+1
  4891  0C92  0872               	movf	??_I2C_Master_Read,w
  4892  0C93  00F4               	movwf	I2C_Master_Read@temp
  4893  0C94  0873               	movf	??_I2C_Master_Read+1,w
  4894  0C95  00F5               	movwf	I2C_Master_Read@temp+1
  4895  0C96                     l1681:
  4896                           
  4897                           ;I2C.c: 81:     I2C_Master_Wait();
  4898  0C96  120A  158A  244E  120A  158A  	fcall	_I2C_Master_Wait
  4899  0C9B                     l1683:
  4900                           
  4901                           ;I2C.c: 82:     if(a == 1){
  4902  0C9B  0370               	decf	I2C_Master_Read@a,w
  4903  0C9C  0471               	iorwf	I2C_Master_Read@a+1,w
  4904  0C9D  1D03               	btfss	3,2
  4905  0C9E  2CA0               	goto	u1751
  4906  0C9F  2CA1               	goto	u1750
  4907  0CA0                     u1751:
  4908  0CA0  2CA5               	goto	l111
  4909  0CA1                     u1750:
  4910  0CA1                     l1685:
  4911                           
  4912                           ;I2C.c: 83:         SSPCON2bits.ACKDT = 0;
  4913  0CA1  1683               	bsf	3,5	;RP0=1, select bank1
  4914  0CA2  1303               	bcf	3,6	;RP1=0, select bank1
  4915  0CA3  1291               	bcf	17,5	;volatile
  4916                           
  4917                           ;I2C.c: 84:     }else{
  4918  0CA4  2CA8               	goto	l112
  4919  0CA5                     l111:
  4920                           
  4921                           ;I2C.c: 85:         SSPCON2bits.ACKDT = 1;
  4922  0CA5  1683               	bsf	3,5	;RP0=1, select bank1
  4923  0CA6  1303               	bcf	3,6	;RP1=0, select bank1
  4924  0CA7  1691               	bsf	17,5	;volatile
  4925  0CA8                     l112:	
  4926                           ;I2C.c: 86:     }
  4927                           
  4928                           
  4929                           ;I2C.c: 87:     SSPCON2bits.ACKEN = 1;
  4930  0CA8  1611               	bsf	17,4	;volatile
  4931  0CA9                     l1687:
  4932                           
  4933                           ;I2C.c: 88:     return temp;
  4934  0CA9  0875               	movf	I2C_Master_Read@temp+1,w
  4935  0CAA  00F1               	movwf	?_I2C_Master_Read+1
  4936  0CAB  0874               	movf	I2C_Master_Read@temp,w
  4937  0CAC  00F0               	movwf	?_I2C_Master_Read
  4938  0CAD                     l113:
  4939  0CAD  0008               	return
  4940  0CAE                     __end_of_I2C_Master_Read:
  4941                           
  4942                           	psect	text14
  4943  0C4E                     __ptext14:	
  4944 ;; *************** function _I2C_Master_Wait *****************
  4945 ;; Defined at:
  4946 ;;		line 32 in file "I2C.c"
  4947 ;; Parameters:    Size  Location     Type
  4948 ;;		None
  4949 ;; Auto vars:     Size  Location     Type
  4950 ;;		None
  4951 ;; Return value:  Size  Location     Type
  4952 ;;                  1    wreg      void 
  4953 ;; Registers used:
  4954 ;;		wreg, status,2
  4955 ;; Tracked objects:
  4956 ;;		On entry : 0/0
  4957 ;;		On exit  : 0/0
  4958 ;;		Unchanged: 0/0
  4959 ;; Data sizes:     COMMON   BANK0   BANK1   BANK3   BANK2
  4960 ;;      Params:         0       0       0       0       0
  4961 ;;      Locals:         0       0       0       0       0
  4962 ;;      Temps:          0       0       0       0       0
  4963 ;;      Totals:         0       0       0       0       0
  4964 ;;Total ram usage:        0 bytes
  4965 ;; Hardware stack levels used:    1
  4966 ;; This function calls:
  4967 ;;		Nothing
  4968 ;; This function is called by:
  4969 ;;		_I2C_Master_Start
  4970 ;;		_I2C_Master_Stop
  4971 ;;		_I2C_Master_Write
  4972 ;;		_I2C_Master_Read
  4973 ;;		_I2C_Master_RepeatedStart
  4974 ;; This function uses a non-reentrant model
  4975 ;;
  4976                           
  4977                           
  4978                           ;psect for function _I2C_Master_Wait
  4979  0C4E                     _I2C_Master_Wait:
  4980  0C4E                     l1615:	
  4981                           ;incstack = 0
  4982                           ; Regs used in _I2C_Master_Wait: [wreg+status,2]
  4983                           
  4984  0C4E                     l93:	
  4985                           ;I2C.c: 34:     while ((SSPSTAT & 0x04) || (SSPCON2 & 0x1F));
  4986                           
  4987  0C4E  1683               	bsf	3,5	;RP0=1, select bank1
  4988  0C4F  1303               	bcf	3,6	;RP1=0, select bank1
  4989  0C50  1914               	btfsc	20,2	;volatile
  4990  0C51  2C53               	goto	u1701
  4991  0C52  2C54               	goto	u1700
  4992  0C53                     u1701:
  4993  0C53  2C4E               	goto	l93
  4994  0C54                     u1700:
  4995  0C54                     l1617:
  4996  0C54  0811               	movf	17,w	;volatile
  4997  0C55  391F               	andlw	31
  4998  0C56  1D03               	btfss	3,2
  4999  0C57  2C59               	goto	u1711
  5000  0C58  2C5A               	goto	u1710
  5001  0C59                     u1711:
  5002  0C59  2C4E               	goto	l93
  5003  0C5A                     u1710:
  5004  0C5A                     l96:
  5005  0C5A  0008               	return
  5006  0C5B                     __end_of_I2C_Master_Wait:
  5007  007E                     btemp	set	126	;btemp
  5008  007E                     wtemp0	set	126
  5009                           
  5010                           	psect	config
  5011                           
  5012                           ;Config register CONFIG1 @ 0x2007
  5013                           ;	Oscillator Selection bits
  5014                           ;	FOSC = INTRC_NOCLKOUT, INTOSCIO oscillator: I/O function on RA6/OSC2/CLKOUT pin, I/O f
      +                          unction on RA7/OSC1/CLKIN
  5015                           ;	Watchdog Timer Enable bit
  5016                           ;	WDTE = OFF, WDT disabled and can be enabled by SWDTEN bit of the WDTCON register
  5017                           ;	Power-up Timer Enable bit
  5018                           ;	PWRTE = OFF, PWRT disabled
  5019                           ;	RE3/MCLR pin function select bit
  5020                           ;	MCLRE = OFF, RE3/MCLR pin function is digital input, MCLR internally tied to VDD
  5021                           ;	Code Protection bit
  5022                           ;	CP = OFF, Program memory code protection is disabled
  5023                           ;	Data Code Protection bit
  5024                           ;	CPD = OFF, Data memory code protection is disabled
  5025                           ;	Brown Out Reset Selection bits
  5026                           ;	BOREN = OFF, BOR disabled
  5027                           ;	Internal External Switchover bit
  5028                           ;	IESO = OFF, Internal/External Switchover mode is disabled
  5029                           ;	Fail-Safe Clock Monitor Enabled bit
  5030                           ;	FCMEN = OFF, Fail-Safe Clock Monitor is disabled
  5031                           ;	Low Voltage Programming Enable bit
  5032                           ;	LVP = OFF, RB3 pin has digital I/O, HV on MCLR must be used for programming
  5033                           ;	In-Circuit Debugger Mode bit
  5034                           ;	DEBUG = 0x1, unprogrammed default
  5035  2007                     	org	8199
  5036  2007  20D4               	dw	8404
  5037                           
  5038                           ;Config register CONFIG2 @ 0x2008
  5039                           ;	Brown-out Reset Selection bit
  5040                           ;	BOR4V = BOR40V, Brown-out Reset set to 4.0V
  5041                           ;	Flash Program Memory Self Write Enable bits
  5042                           ;	WRT = OFF, Write protection off
  5043  2008                     	org	8200
  5044  2008  3FFF               	dw	16383

Data Sizes:
    Strings     0
    Constant    0
    Data        0
    BSS         7
    Persistent  0
    Stack       0

Auto Spaces:
    Space          Size  Autos    Used
    COMMON           14     14      14
    BANK0            80     78      80
    BANK1            80     10      15
    BANK3            96      0       0
    BANK2            96      0       0

Pointer List with Targets:

    None.

Critical Paths under _main in COMMON

    _main->___xxtofl
    _I2C_Master_Init->___lldiv
    ___fltol->___xxtofl
    ___flmul->___xxtofl
    ___fldiv->___xxtofl
    ___fladd->___xxtofl

Critical Paths under _main in BANK0

    _main->___fltol
    _setup->_I2C_Master_Init
    ___fltol->___fladd
    ___fldiv->___flmul
    ___fladd->___fldiv

Critical Paths under _main in BANK1

    _main->___fltol

Critical Paths under _main in BANK3

    None.

Critical Paths under _main in BANK2

    None.

Call Graph Tables:

 ---------------------------------------------------------------------------------
 (Depth) Function   	        Calls       Base Space   Used Autos Params    Refs
 ---------------------------------------------------------------------------------
 (0) _main                                                 5     5      0    7818
                                              5 BANK1      5     5      0
                    _I2C_Master_Read
                   _I2C_Master_Start
                    _I2C_Master_Stop
                   _I2C_Master_Write
                            ___fladd
                            ___fldiv
                            ___flmul
                            ___fltol
                           ___xxtofl
                              _setup
 ---------------------------------------------------------------------------------
 (1) _setup                                                0     0      0     412
                    _I2C_Master_Init
 ---------------------------------------------------------------------------------
 (2) _I2C_Master_Init                                      8     4      4     412
                                              0 BANK0      8     4      4
                            ___lldiv
 ---------------------------------------------------------------------------------
 (3) ___lldiv                                             14     6      8     314
                                              0 COMMON    14     6      8
 ---------------------------------------------------------------------------------
 (1) ___xxtofl                                            14    10      4     398
                                              0 COMMON    14    10      4
 ---------------------------------------------------------------------------------
 (1) ___fltol                                             11     7      4     305
                                             72 BANK0      6     2      4
                                              0 BANK1      5     5      0
                            ___fladd (ARG)
                            ___fldiv (ARG)
                            ___flmul (ARG)
                           ___xxtofl (ARG)
 ---------------------------------------------------------------------------------
 (1) ___flmul                                             26    18      8    2417
                                              0 BANK0     26    18      8
                          __Umul8_16
                           ___xxtofl (ARG)
 ---------------------------------------------------------------------------------
 (2) __Umul8_16                                            9     7      2     799
                                              0 COMMON     9     7      2
 ---------------------------------------------------------------------------------
 (1) ___fldiv                                             26    18      8    1273
                                             26 BANK0     26    18      8
                            ___flmul (ARG)
                           ___xxtofl (ARG)
 ---------------------------------------------------------------------------------
 (1) ___fladd                                             20    12      8    2262
                                             52 BANK0     20    12      8
                            ___fldiv (ARG)
                            ___flmul (ARG)
                           ___xxtofl (ARG)
 ---------------------------------------------------------------------------------
 (1) _I2C_Master_Write                                     2     0      2     478
                                              0 COMMON     2     0      2
                    _I2C_Master_Wait
 ---------------------------------------------------------------------------------
 (1) _I2C_Master_Stop                                      0     0      0       0
                    _I2C_Master_Wait
 ---------------------------------------------------------------------------------
 (1) _I2C_Master_Start                                     0     0      0       0
                    _I2C_Master_Wait
 ---------------------------------------------------------------------------------
 (1) _I2C_Master_Read                                      6     4      2     273
                                              0 COMMON     6     4      2
                    _I2C_Master_Wait
 ---------------------------------------------------------------------------------
 (2) _I2C_Master_Wait                                      0     0      0       0
 ---------------------------------------------------------------------------------
 Estimated maximum stack depth 3
 ---------------------------------------------------------------------------------

 Call Graph Graphs:

 _main (ROOT)
   _I2C_Master_Read
     _I2C_Master_Wait
   _I2C_Master_Start
     _I2C_Master_Wait
   _I2C_Master_Stop
     _I2C_Master_Wait
   _I2C_Master_Write
     _I2C_Master_Wait
   ___fladd
     ___fldiv (ARG)
       ___flmul (ARG)
         __Umul8_16
         ___xxtofl (ARG)
       ___xxtofl (ARG)
     ___flmul (ARG)
       __Umul8_16
       ___xxtofl (ARG)
     ___xxtofl (ARG)
   ___fldiv
     ___flmul (ARG)
       __Umul8_16
       ___xxtofl (ARG)
     ___xxtofl (ARG)
   ___flmul
     __Umul8_16
     ___xxtofl (ARG)
   ___fltol
     ___fladd (ARG)
       ___fldiv (ARG)
         ___flmul (ARG)
           __Umul8_16
           ___xxtofl (ARG)
         ___xxtofl (ARG)
       ___flmul (ARG)
         __Umul8_16
         ___xxtofl (ARG)
       ___xxtofl (ARG)
     ___fldiv (ARG)
       ___flmul (ARG)
         __Umul8_16
         ___xxtofl (ARG)
       ___xxtofl (ARG)
     ___flmul (ARG)
       __Umul8_16
       ___xxtofl (ARG)
     ___xxtofl (ARG)
   ___xxtofl
   _setup
     _I2C_Master_Init
       ___lldiv

 Address spaces:
Name               Size   Autos  Total    Cost      Usage
BITCOMMON            E      0       0       0        0.0%
EEDATA             100      0       0       0        0.0%
NULL                 0      0       0       0        0.0%
CODE                 0      0       0       0        0.0%
COMMON               E      E       E       1      100.0%
BITSFR0              0      0       0       1        0.0%
SFR0                 0      0       0       1        0.0%
BITSFR1              0      0       0       2        0.0%
SFR1                 0      0       0       2        0.0%
STACK                0      0       0       2        0.0%
ABS                  0      0      6D       3        0.0%
BITBANK0            50      0       0       4        0.0%
BITSFR3              0      0       0       4        0.0%
SFR3                 0      0       0       4        0.0%
BANK0               50     4E      50       5      100.0%
BITSFR2              0      0       0       5        0.0%
SFR2                 0      0       0       5        0.0%
BITBANK1            50      0       0       6        0.0%
BANK1               50      A       F       7       18.8%
BITBANK3            60      0       0       8        0.0%
BANK3               60      0       0       9        0.0%
BITBANK2            60      0       0      10        0.0%
BANK2               60      0       0      11        0.0%
DATA                 0      0      6D      12        0.0%


Microchip Technology PIC Macro Assembler V2.31 build 20201012212115 
Symbol Table                                                                                   Wed Aug 11 14:11:00 2021

             ___fldiv@aexp 0053               ___fldiv@bexp 0052                          _a 00AE  
                        _t 00AC               ___fldiv@sign 004B                         l61 0C7F  
                       l55 0EA7                         l90 0CE5                         l93 0C4E  
                       l96 0C5A                         l99 0C3A        __Umul8_16@word_mpld 0076  
                      l111 0CA5                        l112 0CA8                        l113 0CAD  
                      l105 0C43                        l108 0C4D                        l311 0D4B  
                      l610 0483                        l602 0461                        l611 048F  
                      l461 0DE7                        l710 0EA1                        l471 0DE7  
                      l640 0179                        l624 0087                        l721 0E6B  
                      l626 0207                        l722 0E77                        l714 0E4F  
                      l572 0312                        l468 0DD2                        l708 0E0A  
                      l581 048F                        l574 02E9                        l646 01EB  
                      l670 075C                        l568 026B                        l648 01FB  
                      l664 07F0                        l593 0401                        l683 0018  
                      l676 07E4                        l589 03DD                        l685 002A  
                      l599 0423                        _GIE 005F                        _RC0 0038  
                      _RC1 0039                        _RD0 0040                        _RD1 0041  
                      _RD2 0042                        _RD3 0043                        _RD4 0044  
                      _RD5 0045                        _RD6 0046                        _RD7 0047  
             ___flmul@aexp 0032               ___flmul@bexp 0033               ___flmul@sign 002D  
             ___flmul@temp 0038               ___flmul@prod 0034               ___fltol@exp1 006D  
                     l2001 0128                       l2011 0145                       l2003 012C  
                     l2021 015D                       l2013 0149                       l2005 0132  
                     l2101 04EF                       l2031 017E                       l2023 015E  
                     l2015 014A                       l2007 013A                       l2111 051A  
                     l2103 04F4                       l2033 0183                       l2041 01B4  
                     l2025 0162                       l2017 0153                       l2009 013C  
                     l2121 05B7                       l2113 0537                       l2051 01EA  
                     l2043 01C1                       l2035 0191                       l2027 0176  
                     l2019 0159                       l2131 061A                       l2123 05C0  
                     l2115 0553                       l2107 04FD                       l2211 0E12  
                     l2203 0DE9                       l2053 01F1                       l2045 01CF  
                     l2037 0195                       l2141 06BA                       l2133 0633  
                     l2125 05D0                       l2117 057F                       l2109 050D  
                     l2221 0E34                       l2205 0DEE                       l2055 01F5  
                     l2047 01DE                       l2039 01AE                       l2151 0728  
                     l2143 06E0                       l2135 0650                       l2127 05ED  
                     l2119 059B                       l2071 04A2                       l2063 0490  
                     l2231 0E65                       l2223 0E38                       l2215 0E1B  
                     l2207 0DF2                       l2057 01F7                       l2049 01E2  
                     l2161 0740                       l2153 072C                       l2145 0708  
                     l2137 067D                       l2129 05FD                       l2081 04BE  
                     l2073 04A7                       l2065 0497                       l2241 0E98  
                     l2233 0E6F                       l2225 0E46                       l2217 0E20  
                     l2209 0E02                       l2171 0761                       l2163 0741  
                     l2155 072D                       l2147 0711                       l2139 068D  
                     l2091 04D3                       l2083 04C3                       l2075 04AC  
                     l2067 049D                       l2243 0E99                       l2235 0E79  
                     l2227 0E56                       l2219 0E2D                       l1611 0CE3  
                     l1603 0CAE                       l2251 0ED9                       l1621 0007  
                     l2173 0766                       l2181 0797                       l2165 0745  
                     l2157 0736                       l2149 071F                       l2093 04D8  
                     l2085 04C9                       l2077 04B4                       l2069 04A1  
                     l1701 0D8C                       l2237 0E8F                       l2229 0E61  
                     l1613 0CE4                       l1605 0CB2                       l2261 0F23  
                     l2253 0EDE                       l1615 0C4E                       l1623 000E  
                     l2191 07CA                       l2183 07A4                       l2175 0774  
                     l2167 0759                       l2159 073C                       l2095 04E0  
                     l2087 04CD                       l2079 04B6                       l1703 0D94  
                     l2239 0E94                       l1607 0CB5                       l2271 0F5E  
                     l2263 0F32                       l2255 0EE7                       l2247 0EA2  
                     l1617 0C54                       l1801 02AD                       l1625 0012  
                     l2193 07D8                       l2185 07AF                       l2177 0778  
                     l2097 04E2                       l2089 04CE                       l1721 0DBF  
                     l1713 0DA2                       l1705 0D96                       l1609 0CE2  
                     l1641 0C64                       l1633 0C5B                       l2281 0FF6  
                     l2273 0F72                       l2265 0F37                       l2257 0EF3  
                     l2249 0ECA                       l1811 02ED                       l1803 02B1  
                     l1731 0215                       l1627 0021                       l1619 0005  
                     l2195 07DC                       l2187 07BE                       l2179 0791  
                     l2099 04EA                       l1723 0DD7                       l1707 0D9A  
                     l1715 0DB8                       l1651 0C6D                       l1643 0C67  
                     l1635 0C5F                       l2283 0FFA                       l2275 0F75  
                     l2267 0F40                       l2259 0EF8                       l1901 045D  
                     l1821 0306                       l1813 02F6                       l1805 02B5  
                     l1741 022C                       l1733 0219                       l1629 0026  
                     l2197 07DD                       l2189 07C8                       l1725 0DDC  
                     l1581 0CF6                       l1661 0C72                       l1653 0C6E  
                     l1645 0C68                       l1637 0C60                       l2277 0F7D  
                     l2269 0F4E                       l1663 0C32                       l1671 0C3B  
                     l1911 0479                       l1903 0466                       l1831 0324  
                     l1815 02F8                       l1823 030A                       l1807 02B6  
                     l1751 0242                       l1743 022D                       l1735 021A  
                     l1727 0208                       l2199 07E8                       l1591 0D25  
                     l1583 0CF9                       l1655 0C6F                       l1647 0C69  
                     l1639 0C63                       l2279 0F85                       l1681 0C96  
                     l1665 0C37                       l1673 0C40                       l1913 047D  
                     l1905 046B                       l1841 034E                       l1833 033B  
                     l1825 0316                       l1817 02FC                       l1809 02CD  
                     l1761 0253                       l1753 0243                       l1737 021F  
                     l1745 022F                       l1729 020F                       l1921 002B  
                     l1593 0D33                       l1585 0D06                       l1657 0C70  
                     l1649 0C6A                       l1683 0C9B                       l1675 0C80  
                     l1667 0C44                       l1915 047F                       l1907 0473  
                     l1851 0377                       l1843 0352                       l1835 033F  
                     l1827 031B                       l1819 02FD                       l1771 0271  
                     l1763 0258                       l1755 0249                       l1747 0237  
                     l1739 0224                       l1931 0042                       l1923 0032  
                     l1691 0D4C                       l1595 0D34                       l1587 0D0A  
                     l1579 0CE6                       l1659 0C71                       l1685 0CA1  
                     l1677 0C85                       l1669 0C49                       l1917 048A  
                     l1909 0478                       l1861 03E5                       l1853 03B5  
                     l1845 0353                       l1837 0343                       l1781 0285  
                     l1773 0275                       l1765 0260                       l1757 024D  
                     l1749 023C                       l1941 005A                       l1933 0047  
                     l1925 0038                       l1693 0D5D                       l1597 0D3D  
                     l1589 0D13                       l1687 0CA9                       l1679 0C8D  
                     l1919 048E                       l1871 0400                       l1863 03EA  
                     l1855 03BB                       l1847 035C                       l1839 034C  
                     l1791 0299                       l1783 0289                       l1775 0279  
                     l1767 0261                       l1759 024E                       l1951 006F  
                     l1943 005F                       l1935 004F                       l1927 003C  
                     l1599 0D43                       l1873 0405                       l1881 0411  
                     l1857 03C0                       l1849 0361                       l1793 029D  
                     l1785 028D                       l1777 027D                       l1769 0263  
                     l1961 008F                       l1953 0074                       l1945 0065  
                     l1937 0050                       l1929 003D                       l1697 0D66  
                     l1875 0408                       l1867 03F3                       l1859 03CF  
                     l1883 0415                       l1795 02A1                       l1787 0291  
                     l1779 0281                       l1971 00AD                       l1963 009B  
                     l1955 007C                       l1947 0069                       l1939 0052  
                     l1699 0D8B                       l1893 0428                       l1885 0416  
                     l1877 040A                       l1869 03FC                       l1797 02A5  
                     l1789 0295                       l1981 00D8                       l1965 009F  
                     l1957 007D                       l1949 006A                       l1895 042D  
                     l1887 041A                       l1879 040F                       l1799 02A9  
                     l1991 00FD                       l1983 00E0                       l1975 00B6  
                     l1959 007F                       l1897 043B                       l1889 0420  
                     l1993 00FE                       l1985 00E2                       l1977 00C8  
                     l1969 00A8                       l1899 043F                       l1987 00E7  
                     l1995 0107                       l1979 00D0                       l1997 0119  
                     l1989 00F9                       l1999 011A                       u2010 0312  
                     u2011 0311                       u2020 0316                       u2101 038E  
                     u2021 0315                       u2005 02FF                       u2110 03A2  
                     u2102 038F                       u2030 031B                       u2111 03A3  
                     u2103 0394                       u2031 031A                       u2200 041A  
                     u2120 03C0                       u2112 03A8                       u2104 0395  
                     u3000 0E12                       u2201 0419                       u2121 03BF  
                     u2113 03A9                       u2105 039A                       u2041 032D  
                     u3001 0E11                       u2210 0420                       u2130 03E5  
                     u2106 039B                       u2050 033F                       u2042 0334  
                     u2211 041F                       u2131 03E4                       u2051 033E  
                     u2043 033B                       u2300 047D                       u2220 0427  
                     u2140 03EA                       u2060 0343                       u3100 0E94  
                     u3020 0E33                       u2301 047C                       u2221 0426  
                     u2141 03E9                       u2061 0342                       u3101 0E93  
                     u3021 0E32                       u2310 048E                       u2230 042D  
                     u2070 0352                       u3110 0E98                       u2311 048D  
                     u2231 042C                       u2071 0351                       u3111 0E97  
                     u3015 0E25                       u2240 043F                       u2160 0400  
                     u2400 00E7                       u2320 003C                       u3040 0E55  
                     u2241 043E                       u2161 03FF                       u2401 00E6  
                     u2321 003B                       u3041 0E54                       u2250 044E  
                     u2170 0405                       u2090 0377                       u2330 0042  
                     u2171 0404                       u2155 03F5                       u2091 0376  
                     u2331 0041                       u3035 0E47                       u1700 0C54  
                     u2260 045D                       u2180 040F                       u2340 0047  
                     u3060 0E65                       u1620 0CF6                       u1701 0C53  
                     u2261 045C                       u2181 040E                       u2093 0373  
                     u2085 0355                       u2341 0046                       u3061 0E64  
                     u1621 0CF5                       u1710 0C5A                       u2270 0466  
                     u2190 0415                       u2510 015D                       u2430 00FD  
                     u2350 0069                       u3070 0E6B                       u1711 0C59  
                     u2271 0465                       u2255 0449                       u2191 0414  
                     u2511 015C                       u2431 00FC                       u2415 00E9  
                     u2351 0068                       u3071 0E6A                       u3055 0E5A  
                     u3127 0ED2                       u2280 046B                       u2600 01F5  
                     u2520 0162                       u2360 006F                       u1720 0012  
                     u3080 0E6F                       u1640 0D0A                       u2281 046A  
                     u2601 01F4                       u2521 0161                       u2505 014C  
                     u2425 00F2                       u2361 006E                       u1721 0011  
                     u3081 0E6E                       u1641 0D09                       u3137 0F00  
                     u2290 0478                       u2530 0176                       u2450 0119  
                     u2370 0074                       u2610 04A1                       u1810 0DB7  
                     u3090 0E84                       u2291 0477                       u2531 0175  
                     u2451 0118                       u2371 0073                       u2611 04A0  
                     u1811 0DB6                       u1635 0CFB                       u3147 0F2B  
                     u1900 024D                       u2540 017D                       u2460 0132  
                     u2380 008F                       u1740 0026                       u2620 04A7  
                     u1820 0DBE                       u1660 0D25                       u1901 024C  
                     u2541 017C                       u2461 0131                       u2445 0100  
                     u2381 008E                       u1741 0025                       u2701 0561  
                     u2621 04A6                       u1821 0DBD                       u1805 0DA3  
                     u1661 0D24                       u3157 0F6B                       u1750 0CA1  
                     u1910 0253                       u2550 0183                       u2470 013A  
                     u2390 00AD                       u2702 0568                       u2630 04AC  
                     u1751 0CA0                       u1911 0252                       u2551 0182  
                     u2471 0139                       u2455 0115                       u2391 00AC  
                     u1735 0019                       u2711 058D                       u2703 056F  
                     u2631 04AB                       u3095 0E7F                       u1655 0D0C  
                     u1920 0258                       u2560 0195                       u2800 06C6  
                     u2712 0594                       u2640 04CD                       u1840 0DD7  
                     u1760 0D5D                       u1680 0D43                       u1921 0257  
                     u2561 0194                       u2721 05A9                       u2713 059B  
                     u2641 04CC                       u1841 0DD6                       u1761 0D5C  
                     u1681 0D42                       u1665 0D21                       u1930 0271  
                     u2570 01A4                       u2490 0149                       u2722 05B0  
                     u2650 04D3                       u1850 0DDC                       u1770 0D82  
                     u1690 0CC5                       u1931 0270                       u2491 0148  
                     u2811 06D2                       u2723 05B7                       u2651 04D2  
                     u1851 0DDB                       u1835 0DC3                       u1675 0D35  
                     u1940 0275                       u1860 0219                       u2580 01C1  
                     u2900 0759                       u2820 06EE                       u2812 06D9  
                     u2660 04D8                       u1780 0D9A                       u1941 0274  
                     u1861 0218                       u2581 01C0                       u2485 013E  
                     u2901 0758                       u2813 06E0                       u2805 06C1  
                     u2741 05DF                       u2661 04D7                       u1781 0D99  
                     u1950 02CD                       u1870 021F                       u2590 01DE  
                     u2910 0760                       u2742 05E6                       u2670 04EF  
                     u1790 0DA1                       u1951 02CC                       u1871 021E  
                     u2591 01DD                       u2575 019F                       u2911 075F  
                     u2831 06FA                       u2751 060C                       u2743 05ED  
                     u2735 05B9                       u2671 04EE                       u1791 0DA0  
                     u1775 0D7D                       u1695 0CC0                       u1960 02D8  
                     u1880 0224                       u2920 0766                       u2832 0701  
                     u2752 0613                       u2680 04F4                       u1961 02D6  
                     u1881 0223                       u2585 01BD                       u2921 0765  
                     u2833 0708                       u2825 06E9                       u2753 061A  
                     u2681 04F3                       u1970 02D9                       u1890 0242  
                     u2930 0778                       u1955 02C9                       u1891 0241  
                     u2595 01DA                       u2931 0777                       u2771 0642  
                     u2691 0545                       _PEIE 005E                       u1980 02ED  
                     u2940 0787                       u2860 072C                       u2772 0649  
                     u2692 054C                       u1981 02EC                       u2861 072B  
                     u2845 070A                       u2781 066F                       u2773 0650  
                     u2765 061C                       u2693 0553                       u1990 02FC  
                     u2950 07A4                       u2782 0676                       u1991 02FB  
                     u2951 07A3                       u2855 0721                       u2791 069C  
                     u2783 067D                       u2960 07BE                       u2880 0740  
                     u2792 06A3                       u2961 07BD                       u2945 0782  
                     u2881 073F                       u2793 06AA                       u2970 07DC  
                     u2890 0745                       u2971 07DB                       u2955 07A0  
                     u2891 0744                       u2875 072F                       u2980 0DEE  
                     u2965 07BA                       u2981 0DED                       u2990 0DF2  
                     u2991 0DF1                       _main 0EA2                       btemp 007E  
                     start 0000            ___fldiv@new_exp 004C           ?_I2C_Master_Init 0020  
         ?_I2C_Master_Read 0070           ?_I2C_Master_Wait 0070           ?_I2C_Master_Stop 0070  
            ___fltol@sign1 006C            __end_of___fladd 0490                      ?_main 0070  
          __end_of___fldiv 0208            __end_of___flmul 07F1            __end_of___fltol 0DE8  
                    _ANSEL 0188            __end_of___lldiv 0D4C                      _PORTA 0005  
                    _PORTB 0006                      _PORTD 0008                      _PORTE 0009  
                    _TRISA 0085                      _TRISB 0086                      _TRISD 0088  
                    _SSPIE 0463                      _TRISE 0089                      _SSPIF 0063  
                    _sencs 00AD                      _senls 006F                      _senms 00AA  
                    _setup 0C5B                      status 0003                      wtemp0 007E  
          __initialization 07F1               __end_of_main 1000                     ??_main 00A5  
        ?_I2C_Master_Start 0070          ?_I2C_Master_Write 0070         ??_I2C_Master_Start 0070  
       ??_I2C_Master_Write 0072                     ?_setup 0070                     _ANSELH 0189  
                   _SSPADD 0093                     _TRISC3 043B                     _TRISC4 043C  
                   _SSPCON 0014                     _SSPBUF 0013           __end_of___xxtofl 0EA2  
                ??___fladd 005C                  ??___fldiv 0042                  ??___flmul 0028  
                ??___fltol 00A0                  ??___lldiv 0078         __size_of__Umul8_16 0027  
             ___xxtofl@arg 007A               ___xxtofl@exp 0079               ___xxtofl@val 0070  
  __end_of__initialization 07FC                 ___fltol@f1 0068             __pcstackCOMMON 0070  
            __end_of_setup 0C80                    ??_setup 007E                 __pbssBANK0 006E  
               __pbssBANK1 00AA          __end_of__Umul8_16 002B                 __pmaintext 0EA2  
                ?___xxtofl 0070                    _SSPCON2 0091                    _SSPSTAT 0094  
                  ___fladd 0208                    ___fldiv 002B                    ___flmul 0490  
                  ___fltol 0D4C                    ___lldiv 0CE6                    __ptext1 0C5B  
                  __ptext2 0CAE                    __ptext3 0CE6                    __ptext4 0DE8  
                  __ptext5 0D4C                    __ptext6 0490                    __ptext7 0004  
                  __ptext8 002B                    __ptext9 0208                 ??___xxtofl 0074  
 __size_of_I2C_Master_Init 0038   __size_of_I2C_Master_Read 002E   __size_of_I2C_Master_Wait 000D  
 __size_of_I2C_Master_Stop 0009       end_of_initialization 07FC  __size_of_I2C_Master_Start 0009  
__size_of_I2C_Master_Write 000A            ___lldiv@divisor 0070            ___lldiv@counter 007D  
         I2C_Master_Init@c 0020           I2C_Master_Read@a 0070                ___fladd@grs 0067  
            ___xxtofl@sign 0078                  _TRISCbits 0087                ___fldiv@grs 004E  
              ___fldiv@rem 0047                ___flmul@grs 002E        start_initialization 07F1  
        ??_I2C_Master_Init 0024          ??_I2C_Master_Read 0072          ??_I2C_Master_Wait 0070  
        ??_I2C_Master_Stop 0070                  __Umul8_16 0004                  ___fladd@a 0058  
                ___fladd@b 0054                  ___fldiv@a 003A                  ___fldiv@b 003E  
                ___flmul@a 0024                  ___flmul@b 0020                  ___latbits 0002  
            __pcstackBANK0 0020              __pcstackBANK1 00A0          __size_of___xxtofl 00BA  
         _I2C_Master_Start 0C32           _I2C_Master_Write 0C44                   ?___fladd 0054  
                 ?___fldiv 003A                   ?___flmul 0020                   ?___fltol 0068  
                 ?___lldiv 0070                 ?__Umul8_16 0070             __size_of_setup 0025  
                _sensorval 006E        I2C_Master_Read@temp 0074                ??__Umul8_16 0072  
         __size_of___fladd 0288           __size_of___fldiv 01DD           __size_of___flmul 0361  
         __size_of___fltol 009C           __size_of___lldiv 0066            _I2C_Master_Init 0CAE  
          _I2C_Master_Read 0C80                   ___xxtofl 0DE8            _I2C_Master_Wait 0C4E  
          _I2C_Master_Stop 0C3B                   __ptext10 0C44                   __ptext11 0C3B  
                 __ptext12 0C32                   __ptext13 0C80                   __ptext14 0C4E  
            __size_of_main 015E   __end_of_I2C_Master_Start 0C3B   __end_of_I2C_Master_Write 0C4E  
               _INTCONbits 000B           ___lldiv@dividend 0074                 _OSCCONbits 008F  
  __end_of_I2C_Master_Init 0CE6    __end_of_I2C_Master_Read 0CAE    __end_of_I2C_Master_Wait 0C5B  
  __end_of_I2C_Master_Stop 0C44     __Umul8_16@multiplicand 0070           ___lldiv@quotient 0079  
        I2C_Master_Write@d 0070                _SSPCON2bits 0091              ___fladd@signs 0064  
             ___fladd@aexp 0065               ___fladd@bexp 0066       __Umul8_16@multiplier 0078  
        __Umul8_16@product 0074  
